
sha_1.elf:     file format elf32-littlenios2
sha_1.elf
architecture: nios2:r1, flags 0x00000112:
EXEC_P, HAS_SYMS, D_PAGED
start address 0x00000020

Program Header:
    LOAD off    0x00001000 vaddr 0x00000000 paddr 0x00000000 align 2**12
         filesz 0x00000020 memsz 0x00000020 flags r-x
    LOAD off    0x00001020 vaddr 0x00000020 paddr 0x00000020 align 2**12
         filesz 0x000062f4 memsz 0x000062f4 flags r-x
    LOAD off    0x00007314 vaddr 0x00006314 paddr 0x00006438 align 2**12
         filesz 0x00000124 memsz 0x00000124 flags rw-
    LOAD off    0x0000755c vaddr 0x0000655c paddr 0x0000655c align 2**12
         filesz 0x00000000 memsz 0x00000070 flags rw-

Sections:
Idx Name          Size      VMA       LMA       File off  Algn
  0 .entry        00000020  00000000  00000000  00001000  2**5
                  CONTENTS, ALLOC, LOAD, READONLY, CODE
  1 .exceptions   00000000  00000020  00000020  00007438  2**0
                  CONTENTS
  2 .text         00005ea4  00000020  00000020  00001020  2**2
                  CONTENTS, ALLOC, LOAD, READONLY, CODE
  3 .rodata       00000450  00005ec4  00005ec4  00006ec4  2**2
                  CONTENTS, ALLOC, LOAD, READONLY, DATA
  4 .rwdata       00000124  00006314  00006438  00007314  2**2
                  CONTENTS, ALLOC, LOAD, DATA, SMALL_DATA
  5 .bss          00000070  0000655c  0000655c  0000755c  2**2
                  ALLOC, SMALL_DATA
  6 .sys_mem      00000000  000065cc  000065cc  00007438  2**0
                  CONTENTS
  7 .comment      00000023  00000000  00000000  00007438  2**0
                  CONTENTS, READONLY
  8 .debug_aranges 000007d8  00000000  00000000  00007460  2**3
                  CONTENTS, READONLY, DEBUGGING
  9 .debug_info   0000a961  00000000  00000000  00007c38  2**0
                  CONTENTS, READONLY, DEBUGGING
 10 .debug_abbrev 00003e9f  00000000  00000000  00012599  2**0
                  CONTENTS, READONLY, DEBUGGING
 11 .debug_line   0000515b  00000000  00000000  00016438  2**0
                  CONTENTS, READONLY, DEBUGGING
 12 .debug_frame  00000c8c  00000000  00000000  0001b594  2**2
                  CONTENTS, READONLY, DEBUGGING
 13 .debug_str    00002286  00000000  00000000  0001c220  2**0
                  CONTENTS, READONLY, DEBUGGING
 14 .debug_loc    0000aafd  00000000  00000000  0001e4a6  2**0
                  CONTENTS, READONLY, DEBUGGING
 15 .debug_alt_sim_info 00000030  00000000  00000000  00028fa4  2**2
                  CONTENTS, READONLY, DEBUGGING
 16 .debug_ranges 00000fc0  00000000  00000000  00028fd8  2**3
                  CONTENTS, READONLY, DEBUGGING
 17 .thread_model 00000003  00000000  00000000  0002bb26  2**0
                  CONTENTS, READONLY
 18 .cpu          00000009  00000000  00000000  0002bb29  2**0
                  CONTENTS, READONLY
 19 .qsys         00000001  00000000  00000000  0002bb32  2**0
                  CONTENTS, READONLY
 20 .simulation_enabled 00000001  00000000  00000000  0002bb33  2**0
                  CONTENTS, READONLY
 21 .sysid_hash   00000004  00000000  00000000  0002bb34  2**0
                  CONTENTS, READONLY
 22 .sysid_base   00000004  00000000  00000000  0002bb38  2**0
                  CONTENTS, READONLY
 23 .sysid_time   00000004  00000000  00000000  0002bb3c  2**0
                  CONTENTS, READONLY
 24 .stderr_dev   0000000d  00000000  00000000  0002bb40  2**0
                  CONTENTS, READONLY
 25 .stdin_dev    0000000d  00000000  00000000  0002bb4d  2**0
                  CONTENTS, READONLY
 26 .stdout_dev   0000000d  00000000  00000000  0002bb5a  2**0
                  CONTENTS, READONLY
 27 .sopc_system_name 00000008  00000000  00000000  0002bb67  2**0
                  CONTENTS, READONLY
 28 .quartus_project_dir 0000002a  00000000  00000000  0002bb6f  2**0
                  CONTENTS, READONLY
 29 .jdi          000053e8  00000000  00000000  0002bb99  2**0
                  CONTENTS, READONLY
 30 .sopcinfo     00048f72  00000000  00000000  00030f81  2**0
                  CONTENTS, READONLY
SYMBOL TABLE:
00000000 l    d  .entry	00000000 .entry
00000020 l    d  .exceptions	00000000 .exceptions
00000020 l    d  .text	00000000 .text
00005ec4 l    d  .rodata	00000000 .rodata
00006314 l    d  .rwdata	00000000 .rwdata
0000655c l    d  .bss	00000000 .bss
000065cc l    d  .sys_mem	00000000 .sys_mem
00000000 l    d  .comment	00000000 .comment
00000000 l    d  .debug_aranges	00000000 .debug_aranges
00000000 l    d  .debug_info	00000000 .debug_info
00000000 l    d  .debug_abbrev	00000000 .debug_abbrev
00000000 l    d  .debug_line	00000000 .debug_line
00000000 l    d  .debug_frame	00000000 .debug_frame
00000000 l    d  .debug_str	00000000 .debug_str
00000000 l    d  .debug_loc	00000000 .debug_loc
00000000 l    d  .debug_alt_sim_info	00000000 .debug_alt_sim_info
00000000 l    d  .debug_ranges	00000000 .debug_ranges
00000000 l    df *ABS*	00000000 ../sha_1_bsp//obj/HAL/src/crt0.o
00000068 l       .text	00000000 alt_after_alt_main
00000000 l    df *ABS*	00000000 Conversionfunctions.c
00000000 l    df *ABS*	00000000 SecureHash.c
0000658c l     O .bss	00000040 StaticInputWordArray.3129
00006578 l     O .bss	00000014 FinalHash.3196
00000000 l    df *ABS*	00000000 hello_world_small.c
00000000 l    df *ABS*	00000000 main.c
00006314 l     O .rwdata	0000002a hash_array.3189
00000000 l    df *ABS*	00000000 w_pow.c
00000000 l    df *ABS*	00000000 e_pow.c
00000000 l    df *ABS*	00000000 e_sqrt.c
00000000 l    df *ABS*	00000000 s_fabs.c
00000000 l    df *ABS*	00000000 s_finite.c
00000000 l    df *ABS*	00000000 s_fpclassify.c
00000000 l    df *ABS*	00000000 s_lib_ver.c
00000000 l    df *ABS*	00000000 s_matherr.c
00000000 l    df *ABS*	00000000 s_nan.c
00000000 l    df *ABS*	00000000 s_rint.c
000061dc l     O .rodata	00000010 TWO52
00000000 l    df *ABS*	00000000 s_scalbn.c
00000000 l    df *ABS*	00000000 s_copysign.c
00000000 l    df *ABS*	00000000 libgcc2.c
00000000 l    df *ABS*	00000000 adddf3.c
00000000 l    df *ABS*	00000000 divdf3.c
00000000 l    df *ABS*	00000000 eqdf2.c
00000000 l    df *ABS*	00000000 gedf2.c
00000000 l    df *ABS*	00000000 ledf2.c
00000000 l    df *ABS*	00000000 muldf3.c
00000000 l    df *ABS*	00000000 subdf3.c
00000000 l    df *ABS*	00000000 fixdfsi.c
00000000 l    df *ABS*	00000000 floatsidf.c
00000000 l    df *ABS*	00000000 floatunsidf.c
00000000 l    df *ABS*	00000000 libgcc2.c
00000000 l    df *ABS*	00000000 lib2-divmod.c
00000000 l    df *ABS*	00000000 libgcc2.c
00000000 l    df *ABS*	00000000 errno.c
00000000 l    df *ABS*	00000000 impure.c
00006340 l     O .rwdata	000000e0 impure_data
00000000 l    df *ABS*	00000000 itoa.c
00000000 l    df *ABS*	00000000 malloc.c
00000000 l    df *ABS*	00000000 memcpy.c
00000000 l    df *ABS*	00000000 memset.c
00000000 l    df *ABS*	00000000 nano-mallocr.c
00000000 l    df *ABS*	00000000 nano-mallocr.c
00000000 l    df *ABS*	00000000 printf.c
00000000 l    df *ABS*	00000000 puts.c
00000000 l    df *ABS*	00000000 sbrkr.c
00000000 l    df *ABS*	00000000 strcat.c
00000000 l    df *ABS*	00000000 strcmp.c
00000000 l    df *ABS*	00000000 strlen.c
00000000 l    df *ABS*	00000000 utoa.c
00000000 l    df *ABS*	00000000 vfprintf.c
000053dc l     F .text	0000006c print_repeat
00000000 l    df *ABS*	00000000 fvwrite_small_dev.c
00000000 l    df *ABS*	00000000 int_errno.c
00000000 l    df *ABS*	00000000 writer.c
00000000 l    df *ABS*	00000000 alt_load.c
00000000 l    df *ABS*	00000000 alt_main.c
00000000 l    df *ABS*	00000000 alt_printf.c
00000000 l    df *ABS*	00000000 alt_putchar.c
00000000 l    df *ABS*	00000000 alt_sbrk.c
0000642c l     O .rwdata	00000004 heap_end
00000000 l    df *ABS*	00000000 alt_write.c
00000000 l    df *ABS*	00000000 alt_sys_init.c
00000000 l    df *ABS*	00000000 altera_avalon_jtag_uart_write.c
00000000 l    df *ABS*	00000000 alt_dcache_flush_all.c
00000000 l    df *ABS*	00000000 alt_errno.c
00000000 l    df *ABS*	00000000 alt_icache_flush_all.c
00000000 l    df *ABS*	00000000 altera_nios2_gen2_irq.c
00000000 l    df *ABS*	00000000 alt_icache_flush.c
00005b78 g     F .text	0000002c alt_main
00005168 g     F .text	00000080 _puts_r
000020cc g     F .text	00000014 fabs
00006438 g       *ABS*	00000000 __flash_rwdata_start
00003730 g     F .text	00000088 .hidden __eqdf2
000065cc g       *ABS*	00000000 __alt_heap_start
0000511c g     F .text	0000004c printf
00000308 g     F .text	00000008 CircularShiftHex
000037b8 g     F .text	000000dc .hidden __gtdf2
00005e84 g     F .text	00000008 altera_nios2_gen2_irq_init
00004db8 g     F .text	00000010 __errno
00000128 g     F .text	00000050 DecToBinary
00000000 g     F .entry	0000001c __reset
00000020 g       *ABS*	00000000 __flash_exceptions_start
00006568 g     O .bss	00000004 errno
00006570 g     O .bss	00000004 alt_argv
0000e420 g       *ABS*	00000000 _gp
00004e5c g     F .text	00000028 memcpy
00004a1c g     F .text	000000dc .hidden __floatsidf
00003894 g     F .text	000000f4 .hidden __ltdf2
000051e8 g     F .text	00000014 puts
000020fc g     F .text	00000074 __fpclassifyd
00004e34 g     F .text	00000014 malloc
000050e0 g     F .text	0000003c _printf_r
00004cfc g     F .text	00000064 .hidden __udivsi3
00002528 g     F .text	00000074 .hidden __fixunsdfsi
00005e8c g     F .text	00000038 alt_icache_flush
00004e30 g     F .text	00000004 itoa
000051fc g     F .text	00000050 _sbrk_r
0000259c g     F .text	000008ac .hidden __adddf3
00006420 g     O .rwdata	00000004 __fdlib_version
00006424 g     O .rwdata	00000004 _global_impure_ptr
000065cc g       *ABS*	00000000 __bss_end
00004af8 g     F .text	000000a8 .hidden __floatunsidf
00002184 g     F .text	000001ec rint
00005e60 g     F .text	00000018 alt_dcache_flush_all
000053d8 g     F .text	00000004 utoa
0000499c g     F .text	00000080 .hidden __fixdfsi
0000006c g     F .text	000000bc StringToBinary
00000310 g     F .text	0000004c LogicalFunction
00006438 g       *ABS*	00000000 __ram_rwdata_end
00005da8 g     F .text	00000060 write
00006314 g       *ABS*	00000000 __ram_rodata_end
00003894 g     F .text	000000f4 .hidden __ledf2
0000524c g     F .text	0000003c strcat
00004d60 g     F .text	00000058 .hidden __umodsi3
000065cc g       *ABS*	00000000 end
000003ac g     F .text	00000254 sha1
00004dc8 g     F .text	00000068 __itoa
00009c40 g       *ABS*	00000000 __alt_stack_pointer
00004ba0 g     F .text	00000064 .hidden __clzsi2
00005e2c g     F .text	00000034 altera_avalon_jtag_uart_write
00005448 g     F .text	00000524 ___vfprintf_internal_r
00004ea4 g     F .text	000000e4 _free_r
00005ba4 g     F .text	00000170 alt_printf
00000020 g     F .text	0000004c _start
00005e28 g     F .text	00000004 alt_sys_init
00000000 g       *ABS*	00000000 __alt_mem_sys_mem
00000da0 g     F .text	000010a4 __ieee754_pow
000008dc g     F .text	000004c4 pow
00006314 g       *ABS*	00000000 __ram_rwdata_start
00005ec4 g       *ABS*	00000000 __ram_rodata_start
0000024c g     F .text	000000bc CircularShiftArray
000065cc g       *ABS*	00000000 __alt_stack_base
00002e48 g     F .text	000008e8 .hidden __divdf3
00003988 g     F .text	00000718 .hidden __muldf3
00005d5c g     F .text	0000004c sbrk
000052dc g     F .text	000000fc __utoa
00005988 g     F .text	000000b8 __sfvwrite_small_dev
0000655c g       *ABS*	00000000 __bss_start
00004e84 g     F .text	00000020 memset
00000600 g     F .text	000002dc main
0000656c g     O .bss	00000004 alt_envp
00002170 g     F .text	00000008 matherr
00009c40 g       *ABS*	00000000 __alt_heap_limit
00000178 g     F .text	000000d4 BinaryArraytoDec
00004f88 g     F .text	00000158 _malloc_r
00006434 g     O .rwdata	00000004 alt_errno
00004c04 g     F .text	00000084 .hidden __divsi3
000020e0 g     F .text	0000001c finite
00005288 g     F .text	00000038 strcmp
00005ec4 g       *ABS*	00000000 __flash_rodata_start
0000035c g     F .text	00000050 constantK
0000250c g     F .text	0000001c copysign
0000655c g     O .bss	00000004 delay
00003730 g     F .text	00000088 .hidden __nedf2
00005e08 g     F .text	00000020 alt_irq_init
000061ec g     O .rodata	00000100 .hidden __clz_tab
00005a40 g     F .text	00000058 _write_r
00006428 g     O .rwdata	00000004 _impure_ptr
00006574 g     O .bss	00000004 alt_argc
00002370 g     F .text	0000019c scalbn
00006430 g     O .rwdata	00000004 sys_jtag_uart
00002178 g     F .text	0000000c nan
00000020 g       *ABS*	00000000 __ram_exceptions_start
00001e44 g     F .text	00000288 __ieee754_sqrt
00006438 g       *ABS*	00000000 _edata
000065cc g       *ABS*	00000000 _end
00000020 g       *ABS*	00000000 __ram_exceptions_end
00004c88 g     F .text	00000074 .hidden __modsi3
00009c40 g       *ABS*	00000000 __alt_data_end
0000001c g       .entry	00000000 _exit
000052c0 g     F .text	0000001c strlen
000037b8 g     F .text	000000dc .hidden __gedf2
00005d14 g     F .text	00000048 alt_putchar
00006560 g     O .bss	00000004 __malloc_sbrk_start
00005e78 g     F .text	0000000c alt_icache_flush_all
00006564 g     O .bss	00000004 __malloc_free_list
0000596c g     F .text	0000001c __vfprintf_internal
000040a0 g     F .text	000008fc .hidden __subdf3
00005a98 g     F .text	000000e0 alt_load
00004e48 g     F .text	00000014 free



Disassembly of section .entry:

00000000 <__reset>:
#if NIOS2_ICACHE_SIZE > 0 && defined(ALT_ALLOW_CODE_AT_RESET) && (!defined(ALT_SIM_OPTIMIZE) || defined(NIOS2_ECC_PRESENT))
    /* Assume the instruction cache size is always a power of two. */
#if NIOS2_ICACHE_SIZE > 0x8000
    movhi r2, %hi(NIOS2_ICACHE_SIZE)
#else
    movui r2, NIOS2_ICACHE_SIZE
   0:	00840014 	movui	r2,4096
#endif

0:
    initi r2
   4:	1001483a 	initi	r2
    addi r2, r2, -NIOS2_ICACHE_LINE_SIZE
   8:	10bff804 	addi	r2,r2,-32
    bgt r2, zero, 0b
   c:	00bffd16 	blt	zero,r2,4 <_gp+0xffff1be4>
 * Jump to the _start entry point in the .text section if reset code
 * is allowed or if optimizing for RTL simulation.
 */
#if defined(ALT_ALLOW_CODE_AT_RESET) || defined(ALT_SIM_OPTIMIZE)
    /* Jump to the _start entry point in the .text section. */
    movhi r1, %hi(_start)
  10:	00400034 	movhi	at,0
    ori r1, r1, %lo(_start)
  14:	08400814 	ori	at,at,32
    jmp r1
  18:	0800683a 	jmp	at

0000001c <_exit>:
  1c:	00000000 	call	0 <__reset>

Disassembly of section .text:

00000020 <_start>:

    /* Assume the data cache size is always a power of two. */
#if NIOS2_DCACHE_SIZE > 0x8000
    movhi r2, %hi(NIOS2_DCACHE_SIZE)
#else
    movui r2, NIOS2_DCACHE_SIZE
      20:	00820014 	movui	r2,2048
#endif

0:
    initd 0(r2)
      24:	10000033 	initd	0(r2)
#ifdef NIOS2_ECC_PRESENT
    addi r2, r2, -4
#else
    addi r2, r2, -NIOS2_DCACHE_LINE_SIZE
      28:	10bff804 	addi	r2,r2,-32
#endif
    bgt r2, zero, 0b
      2c:	00bffd16 	blt	zero,r2,24 <_gp+0xffff1c04>

    /*
     * Now that the caches are initialized, set up the stack pointer and global pointer.
     * The values provided by the linker are assumed to be correctly aligned.
     */
    movhi sp, %hi(__alt_stack_pointer)
      30:	06c00034 	movhi	sp,0
    ori sp, sp, %lo(__alt_stack_pointer)
      34:	dee71014 	ori	sp,sp,40000
    movhi gp, %hi(_gp)
      38:	06800034 	movhi	gp,0
    ori gp, gp, %lo(_gp)
      3c:	d6b90814 	ori	gp,gp,58400
 */
#ifndef ALT_SIM_OPTIMIZE
    /* Log that the BSS is about to be cleared. */
    ALT_LOG_PUTS(alt_log_msg_bss)

    movhi r2, %hi(__bss_start)
      40:	00800034 	movhi	r2,0
    ori r2, r2, %lo(__bss_start)
      44:	10995714 	ori	r2,r2,25948

    movhi r3, %hi(__bss_end)
      48:	00c00034 	movhi	r3,0
    ori r3, r3, %lo(__bss_end)
      4c:	18d97314 	ori	r3,r3,26060

    beq r2, r3, 1f
      50:	10c00326 	beq	r2,r3,60 <_start+0x40>

0:
    stw zero, (r2)
      54:	10000015 	stw	zero,0(r2)
    addi r2, r2, 4
      58:	10800104 	addi	r2,r2,4
    bltu r2, r3, 0b
      5c:	10fffd36 	bltu	r2,r3,54 <_gp+0xffff1c34>
     * section aren't defined until alt_load() has been called).
     */
    mov   et, zero
#endif

    call alt_load
      60:	0005a980 	call	5a98 <alt_load>

    /* Log that alt_main is about to be called. */
    ALT_LOG_PUTS(alt_log_msg_alt_main)

    /* Call the C entry point. It should never return. */
    call alt_main
      64:	0005b780 	call	5b78 <alt_main>

00000068 <alt_after_alt_main>:

    /* Wait in infinite loop in case alt_main does return. */
alt_after_alt_main:
    br alt_after_alt_main
      68:	003fff06 	br	68 <_gp+0xffff1c48>

0000006c <StringToBinary>:
 * @return [out] Binary - the function returns input as a binary sequence.
 */
char* StringToBinary(char *InputString)
{
	//! If the entered input string is empty/null, then return 0.
	if (InputString == NULL)
      6c:	20002c26 	beq	r4,zero,120 <StringToBinary+0xb4>
 * A function to convert given input string into Binary sequence.
 * @param [in] InputString - this is char type input to the function.
 * @return [out] Binary - the function returns input as a binary sequence.
 */
char* StringToBinary(char *InputString)
{
      70:	defff904 	addi	sp,sp,-28
      74:	dfc00615 	stw	ra,24(sp)
      78:	dd000415 	stw	r20,16(sp)
      7c:	dc800215 	stw	r18,8(sp)
      80:	dc400115 	stw	r17,4(sp)
      84:	dc000015 	stw	r16,0(sp)
      88:	dd400515 	stw	r21,20(sp)
      8c:	2021883a 	mov	r16,r4
      90:	dcc00315 	stw	r19,12(sp)
	//! If the entered input string is empty/null, then return 0.
	if (InputString == NULL)
		return 0;

	//! Calculate the Input String Length using strlen function.
	size_t InputStringLength = strlen(InputString);
      94:	00052c00 	call	52c0 <strlen>

	//! Each character of InputString is one byte (8 bits)
	//! So, we need to assign memory of that length* 8bits(char size)
	//! and + 1 at the end for null terminator.
	char *binary = malloc(InputStringLength * sizeof(char) + 1);
      98:	11000044 	addi	r4,r2,1
	//! If the entered input string is empty/null, then return 0.
	if (InputString == NULL)
		return 0;

	//! Calculate the Input String Length using strlen function.
	size_t InputStringLength = strlen(InputString);
      9c:	1025883a 	mov	r18,r2

	//! Each character of InputString is one byte (8 bits)
	//! So, we need to assign memory of that length* 8bits(char size)
	//! and + 1 at the end for null terminator.
	char *binary = malloc(InputStringLength * sizeof(char) + 1);
      a0:	0004e340 	call	4e34 <malloc>
      a4:	1023883a 	mov	r17,r2

	binary[0] = '\0';
      a8:	10000005 	stb	zero,0(r2)
      ac:	84a5883a 	add	r18,r16,r18

	//! For each character of the InputString, convert it to binary
	for (size_t i = 0; i < InputStringLength; ++i)
	{
		char ch = InputString[i];
		for (int j = 7; j >= 0; --j)
      b0:	053fffc4 	movi	r20,-1
	char *binary = malloc(InputStringLength * sizeof(char) + 1);

	binary[0] = '\0';

	//! For each character of the InputString, convert it to binary
	for (size_t i = 0; i < InputStringLength; ++i)
      b4:	84801026 	beq	r16,r18,f8 <StringToBinary+0x8c>
	{
		char ch = InputString[i];
		for (int j = 7; j >= 0; --j)
		{
			if (ch & (1 << j))
      b8:	85400007 	ldb	r21,0(r16)

	//! For each character of the InputString, convert it to binary
	for (size_t i = 0; i < InputStringLength; ++i)
	{
		char ch = InputString[i];
		for (int j = 7; j >= 0; --j)
      bc:	04c001c4 	movi	r19,7
		{
			if (ch & (1 << j))
      c0:	acc5d83a 	sra	r2,r21,r19
      c4:	1080004c 	andi	r2,r2,1
      c8:	10000326 	beq	r2,zero,d8 <StringToBinary+0x6c>
			{
				strcat(binary, "1");
      cc:	01400034 	movhi	r5,0
      d0:	2957b104 	addi	r5,r5,24260
      d4:	00000206 	br	e0 <StringToBinary+0x74>
			}
			else
			{
				strcat(binary, "0");
      d8:	01400034 	movhi	r5,0
      dc:	2957b204 	addi	r5,r5,24264
      e0:	8809883a 	mov	r4,r17

	//! For each character of the InputString, convert it to binary
	for (size_t i = 0; i < InputStringLength; ++i)
	{
		char ch = InputString[i];
		for (int j = 7; j >= 0; --j)
      e4:	9cffffc4 	addi	r19,r19,-1
			{
				strcat(binary, "1");
			}
			else
			{
				strcat(binary, "0");
      e8:	000524c0 	call	524c <strcat>

	//! For each character of the InputString, convert it to binary
	for (size_t i = 0; i < InputStringLength; ++i)
	{
		char ch = InputString[i];
		for (int j = 7; j >= 0; --j)
      ec:	9d3ff41e 	bne	r19,r20,c0 <_gp+0xffff1ca0>
      f0:	84000044 	addi	r16,r16,1
      f4:	003fef06 	br	b4 <_gp+0xffff1c94>
			{
				strcat(binary, "0");
			}
		}
	}
	return binary;
      f8:	8805883a 	mov	r2,r17
}
      fc:	dfc00617 	ldw	ra,24(sp)
     100:	dd400517 	ldw	r21,20(sp)
     104:	dd000417 	ldw	r20,16(sp)
     108:	dcc00317 	ldw	r19,12(sp)
     10c:	dc800217 	ldw	r18,8(sp)
     110:	dc400117 	ldw	r17,4(sp)
     114:	dc000017 	ldw	r16,0(sp)
     118:	dec00704 	addi	sp,sp,28
     11c:	f800283a 	ret
 */
char* StringToBinary(char *InputString)
{
	//! If the entered input string is empty/null, then return 0.
	if (InputString == NULL)
		return 0;
     120:	0005883a 	mov	r2,zero
     124:	f800283a 	ret

00000128 <DecToBinary>:
	}
	return binary;
}

uint32_t DecToBinary(uint32_t MessageLength, uint32_t ReturnBinaryValue[64])
{
     128:	deffc004 	addi	sp,sp,-256
	//! array to store binary number
	uint32_t BinaryNum[64];

	//! counter for binary array
	int i = 0;
     12c:	0005883a 	mov	r2,zero
     130:	1087883a 	add	r3,r2,r2
	while (MessageLength > 0)
	{

		//! storing remainder in binary array
		BinaryNum[i] = MessageLength % 2;
     134:	18c7883a 	add	r3,r3,r3
	//! array to store binary number
	uint32_t BinaryNum[64];

	//! counter for binary array
	int i = 0;
	while (MessageLength > 0)
     138:	20000626 	beq	r4,zero,154 <DecToBinary+0x2c>
	{

		//! storing remainder in binary array
		BinaryNum[i] = MessageLength % 2;
     13c:	2180004c 	andi	r6,r4,1
     140:	d8c7883a 	add	r3,sp,r3
     144:	19800015 	stw	r6,0(r3)
		MessageLength = MessageLength / 2;
     148:	2008d07a 	srli	r4,r4,1
		i++;
     14c:	10800044 	addi	r2,r2,1
     150:	003ff706 	br	130 <_gp+0xffff1d10>
	}
	for (int j = 0; j < i; j++)
     154:	20c00626 	beq	r4,r3,170 <DecToBinary+0x48>
	{
		ReturnBinaryValue[j] = BinaryNum[j];
     158:	d90f883a 	add	r7,sp,r4
     15c:	39c00017 	ldw	r7,0(r7)
     160:	290d883a 	add	r6,r5,r4
     164:	21000104 	addi	r4,r4,4
     168:	31c00015 	stw	r7,0(r6)
     16c:	003ff906 	br	154 <_gp+0xffff1d34>
	}
	return i;
}
     170:	dec04004 	addi	sp,sp,256
     174:	f800283a 	ret

00000178 <BinaryArraytoDec>:

uint32_t BinaryArraytoDec(unsigned short BinaryArray[32])
{
     178:	defff904 	addi	sp,sp,-28
     17c:	dcc00315 	stw	r19,12(sp)
     180:	dc800215 	stw	r18,8(sp)
     184:	dc400115 	stw	r17,4(sp)
     188:	dc000015 	stw	r16,0(sp)
     18c:	dfc00615 	stw	ra,24(sp)
     190:	dd400515 	stw	r21,20(sp)
     194:	dd000415 	stw	r20,16(sp)
     198:	24400f84 	addi	r17,r4,62
     19c:	0021883a 	mov	r16,zero
	uint32_t DecimalNumber=0;
     1a0:	0025883a 	mov	r18,zero
	for(int i=31;i>=0;i--)
     1a4:	04c00804 	movi	r19,32
	{
		DecimalNumber=DecimalNumber+(pow(2,31-i)*BinaryArray[i]);
     1a8:	8009883a 	mov	r4,r16
     1ac:	0004a1c0 	call	4a1c <__floatsidf>
     1b0:	100d883a 	mov	r6,r2
     1b4:	180f883a 	mov	r7,r3
     1b8:	01500034 	movhi	r5,16384
     1bc:	0009883a 	mov	r4,zero
     1c0:	00008dc0 	call	8dc <pow>
     1c4:	8900000b 	ldhu	r4,0(r17)
     1c8:	102b883a 	mov	r21,r2
     1cc:	1829883a 	mov	r20,r3
     1d0:	0004a1c0 	call	4a1c <__floatsidf>
     1d4:	a80d883a 	mov	r6,r21
     1d8:	a00f883a 	mov	r7,r20
     1dc:	180b883a 	mov	r5,r3
     1e0:	1009883a 	mov	r4,r2
     1e4:	00039880 	call	3988 <__muldf3>
     1e8:	9009883a 	mov	r4,r18
     1ec:	102b883a 	mov	r21,r2
     1f0:	1829883a 	mov	r20,r3
     1f4:	0004af80 	call	4af8 <__floatunsidf>
     1f8:	100d883a 	mov	r6,r2
     1fc:	180f883a 	mov	r7,r3
     200:	a809883a 	mov	r4,r21
     204:	a00b883a 	mov	r5,r20
     208:	000259c0 	call	259c <__adddf3>
     20c:	1009883a 	mov	r4,r2
     210:	180b883a 	mov	r5,r3
     214:	00025280 	call	2528 <__fixunsdfsi>
     218:	84000044 	addi	r16,r16,1
     21c:	1025883a 	mov	r18,r2
     220:	8c7fff84 	addi	r17,r17,-2
}

uint32_t BinaryArraytoDec(unsigned short BinaryArray[32])
{
	uint32_t DecimalNumber=0;
	for(int i=31;i>=0;i--)
     224:	84ffe01e 	bne	r16,r19,1a8 <_gp+0xffff1d88>
	{
		DecimalNumber=DecimalNumber+(pow(2,31-i)*BinaryArray[i]);
	}
	return DecimalNumber;

}
     228:	dfc00617 	ldw	ra,24(sp)
     22c:	dd400517 	ldw	r21,20(sp)
     230:	dd000417 	ldw	r20,16(sp)
     234:	dcc00317 	ldw	r19,12(sp)
     238:	dc800217 	ldw	r18,8(sp)
     23c:	dc400117 	ldw	r17,4(sp)
     240:	dc000017 	ldw	r16,0(sp)
     244:	dec00704 	addi	sp,sp,28
     248:	f800283a 	ret

0000024c <CircularShiftArray>:

#define WordSize 32

unsigned short* CircularShiftArray(unsigned short InputWordArray[WordSize],
		uint32_t RotationValue)
{
     24c:	defffa04 	addi	sp,sp,-24
     250:	dd000415 	stw	r20,16(sp)
     254:	dcc00315 	stw	r19,12(sp)
     258:	dc400115 	stw	r17,4(sp)
     25c:	dc000015 	stw	r16,0(sp)
     260:	dfc00515 	stw	ra,20(sp)
     264:	dc800215 	stw	r18,8(sp)
     268:	2021883a 	mov	r16,r4
     26c:	2827883a 	mov	r19,r5
	unsigned short static StaticInputWordArray[WordSize];
	//!Rotate the given array by RotationValue times toward left
	for (int i = 0; i < RotationValue; i++)
     270:	0023883a 	mov	r17,zero
     274:	25001004 	addi	r20,r4,64
     278:	8cc00f26 	beq	r17,r19,2b8 <CircularShiftArray+0x6c>
	{
		int j, first;
		//! Stores the first element of the InputWordArray
		first = InputWordArray[0];
     27c:	8480000b 	ldhu	r18,0(r16)
		printf("First element of array%d\n", first);
     280:	01000034 	movhi	r4,0
     284:	2117b304 	addi	r4,r4,24268
     288:	917fffcc 	andi	r5,r18,65535
     28c:	000511c0 	call	511c <printf>
     290:	80800084 	addi	r2,r16,2
     294:	8007883a 	mov	r3,r16
		for (j = 0; j < WordSize - 1; j++)
		{
			//! Shift element of array by one
			InputWordArray[j] = InputWordArray[j + 1];
     298:	1100000b 	ldhu	r4,0(r2)
     29c:	10800084 	addi	r2,r2,2
     2a0:	18c00084 	addi	r3,r3,2
     2a4:	193fff8d 	sth	r4,-2(r3)
	{
		int j, first;
		//! Stores the first element of the InputWordArray
		first = InputWordArray[0];
		printf("First element of array%d\n", first);
		for (j = 0; j < WordSize - 1; j++)
     2a8:	a0bffb1e 	bne	r20,r2,298 <_gp+0xffff1e78>
		{
			//! Shift element of array by one
			InputWordArray[j] = InputWordArray[j + 1];
		}
		//! First element of InputWordArray will be added to the end
		InputWordArray[j] = first;
     2ac:	84800f8d 	sth	r18,62(r16)
unsigned short* CircularShiftArray(unsigned short InputWordArray[WordSize],
		uint32_t RotationValue)
{
	unsigned short static StaticInputWordArray[WordSize];
	//!Rotate the given array by RotationValue times toward left
	for (int i = 0; i < RotationValue; i++)
     2b0:	8c400044 	addi	r17,r17,1
     2b4:	003ff006 	br	278 <_gp+0xffff1e58>
		InputWordArray[j] = first;
	}

	for (int i = 0; i < WordSize; i++)
	{
		StaticInputWordArray[i] = InputWordArray[i];
     2b8:	01800034 	movhi	r6,0
     2bc:	0005883a 	mov	r2,zero
     2c0:	31996304 	addi	r6,r6,25996
		}
		//! First element of InputWordArray will be added to the end
		InputWordArray[j] = first;
	}

	for (int i = 0; i < WordSize; i++)
     2c4:	00c01004 	movi	r3,64
	{
		StaticInputWordArray[i] = InputWordArray[i];
     2c8:	8089883a 	add	r4,r16,r2
     2cc:	2140000b 	ldhu	r5,0(r4)
     2d0:	1189883a 	add	r4,r2,r6
     2d4:	10800084 	addi	r2,r2,2
     2d8:	2140000d 	sth	r5,0(r4)
		}
		//! First element of InputWordArray will be added to the end
		InputWordArray[j] = first;
	}

	for (int i = 0; i < WordSize; i++)
     2dc:	10fffa1e 	bne	r2,r3,2c8 <_gp+0xffff1ea8>
		StaticInputWordArray[i] = InputWordArray[i];

	}
	return StaticInputWordArray;

}
     2e0:	00800034 	movhi	r2,0
     2e4:	10996304 	addi	r2,r2,25996
     2e8:	dfc00517 	ldw	ra,20(sp)
     2ec:	dd000417 	ldw	r20,16(sp)
     2f0:	dcc00317 	ldw	r19,12(sp)
     2f4:	dc800217 	ldw	r18,8(sp)
     2f8:	dc400117 	ldw	r17,4(sp)
     2fc:	dc000017 	ldw	r16,0(sp)
     300:	dec00604 	addi	sp,sp,24
     304:	f800283a 	ret

00000308 <CircularShiftHex>:
	//!Rotate the given array by RotationValue times toward left
	uint32_t HexShift;
	HexShift = (InputHex << RotationValue)
			| (InputHex >> (WordSize - RotationValue));
	return HexShift;
}
     308:	2144183a 	rol	r2,r4,r5
     30c:	f800283a 	ret

00000310 <LogicalFunction>:
	//!	f(i;B,C,D) = B ^ C ^ D 						for  20<=i<=39
	//!	f(i;B,C,D) = (B & C) | (B & D) | (C & D) 	for  40<=i<=59
	//!	f(i;B,C,D) = B ^ C ^ D						for  60<=i<=79.

	uint32_t logicalF;
	if (i >= 0 && i <= 19)
     310:	00c004c4 	movi	r3,19
     314:	19000336 	bltu	r3,r4,324 <LogicalFunction+0x14>
	{
		logicalF = (B & C) | ((~B) & D);
     318:	3984f03a 	xor	r2,r7,r6
     31c:	114a703a 	and	r5,r2,r5
     320:	00000506 	br	338 <LogicalFunction+0x28>
	}
	else if ((i >= 20 && i <= 39) || (i >= 60 && i <= 79))
     324:	223ffb04 	addi	r8,r4,-20
     328:	1a00022e 	bgeu	r3,r8,334 <LogicalFunction+0x24>
     32c:	223ff104 	addi	r8,r4,-60
     330:	1a000336 	bltu	r3,r8,340 <LogicalFunction+0x30>
	{
		logicalF = B ^ C ^ D;
     334:	314af03a 	xor	r5,r6,r5
     338:	29c4f03a 	xor	r2,r5,r7
     33c:	f800283a 	ret
	}
	else if (i >= 40 && i <= 59)
     340:	213ff604 	addi	r4,r4,-40
     344:	19000436 	bltu	r3,r4,358 <LogicalFunction+0x48>
	{
		logicalF = (B & C) | (B & D) | (C & D);
     348:	3984b03a 	or	r2,r7,r6
     34c:	114a703a 	and	r5,r2,r5
     350:	398c703a 	and	r6,r7,r6
     354:	2984b03a 	or	r2,r5,r6
	}

	return logicalF;
}
     358:	f800283a 	ret

0000035c <constantK>:
uint32_t constantK(uint32_t i)
{
	//!	A sequence of constant words in hex is used in the formulas.
	uint32_t K;

	if (i >= 0 && i <= 19)
     35c:	00c004c4 	movi	r3,19
     360:	1900092e 	bgeu	r3,r4,388 <constantK+0x2c>
	{
		K = 0x5A827999;
	}
	else if (i >= 20 && i <= 39)
     364:	217ffb04 	addi	r5,r4,-20
     368:	19400a2e 	bgeu	r3,r5,394 <constantK+0x38>
	{
		K = 0x6ED9EBA1;
	}
	else if (i >= 40 && i <= 59)
     36c:	217ff604 	addi	r5,r4,-40
     370:	19400b2e 	bgeu	r3,r5,3a0 <constantK+0x44>
	{
		K = 0x8F1BBCDC;
	}
	else if (i >= 60 && i <= 79)
     374:	213ff104 	addi	r4,r4,-60
     378:	19000b36 	bltu	r3,r4,3a8 <constantK+0x4c>
	{
		K = 0xCA62C1D6;
     37c:	00b298f4 	movhi	r2,51811
     380:	10b07584 	addi	r2,r2,-15914
     384:	f800283a 	ret
	//!	A sequence of constant words in hex is used in the formulas.
	uint32_t K;

	if (i >= 0 && i <= 19)
	{
		K = 0x5A827999;
     388:	0096a0b4 	movhi	r2,23170
     38c:	109e6644 	addi	r2,r2,31129
     390:	f800283a 	ret
	}
	else if (i >= 20 && i <= 39)
	{
		K = 0x6ED9EBA1;
     394:	009bb6b4 	movhi	r2,28378
     398:	10bae844 	addi	r2,r2,-5215
     39c:	f800283a 	ret
	}
	else if (i >= 40 && i <= 59)
	{
		K = 0x8F1BBCDC;
     3a0:	00a3c734 	movhi	r2,36636
     3a4:	10af3704 	addi	r2,r2,-17188
	{
		K = 0xCA62C1D6;
	}

	return K;
}
     3a8:	f800283a 	ret

000003ac <sha1>:

uint32_t* sha1(const uint32_t *m_ptr, const uint32_t *prev_hash)
{
     3ac:	defe9e04 	addi	sp,sp,-1416
     3b0:	dfc16115 	stw	ra,1412(sp)
     3b4:	df016015 	stw	fp,1408(sp)
     3b8:	ddc15f15 	stw	r23,1404(sp)
     3bc:	dd815e15 	stw	r22,1400(sp)
     3c0:	dd415d15 	stw	r21,1396(sp)
     3c4:	dd015c15 	stw	r20,1392(sp)
     3c8:	dcc15b15 	stw	r19,1388(sp)
     3cc:	dc815a15 	stw	r18,1384(sp)
     3d0:	dc415915 	stw	r17,1380(sp)
     3d4:	dc015815 	stw	r16,1376(sp)
     3d8:	0007883a 	mov	r3,zero
	unsigned short WordArray[16][WordSize];
	uint32_t DecWordArray[80];

	for (int i = 0; i < 16; i++)
	{
		for (int j = 0; j < 32; j++)
     3dc:	02001004 	movi	r8,64
uint32_t* sha1(const uint32_t *m_ptr, const uint32_t *prev_hash)
{
	unsigned short WordArray[16][WordSize];
	uint32_t DecWordArray[80];

	for (int i = 0; i < 16; i++)
     3e0:	02410004 	movi	r9,1024
     3e4:	18cf883a 	add	r7,r3,r3

	return K;
}

uint32_t* sha1(const uint32_t *m_ptr, const uint32_t *prev_hash)
{
     3e8:	0005883a 	mov	r2,zero

	for (int i = 0; i < 16; i++)
	{
		for (int j = 0; j < 32; j++)
		{
			WordArray[i][j] = m_ptr[i * 32 + j];
     3ec:	188d883a 	add	r6,r3,r2
     3f0:	d9400304 	addi	r5,sp,12
     3f4:	298d883a 	add	r6,r5,r6
     3f8:	108b883a 	add	r5,r2,r2
     3fc:	29cb883a 	add	r5,r5,r7
     400:	214b883a 	add	r5,r4,r5
     404:	29400017 	ldw	r5,0(r5)
     408:	10800084 	addi	r2,r2,2
     40c:	3140000d 	sth	r5,0(r6)
	unsigned short WordArray[16][WordSize];
	uint32_t DecWordArray[80];

	for (int i = 0; i < 16; i++)
	{
		for (int j = 0; j < 32; j++)
     410:	123ff61e 	bne	r2,r8,3ec <_gp+0xffff1fcc>
     414:	18c01004 	addi	r3,r3,64
uint32_t* sha1(const uint32_t *m_ptr, const uint32_t *prev_hash)
{
	unsigned short WordArray[16][WordSize];
	uint32_t DecWordArray[80];

	for (int i = 0; i < 16; i++)
     418:	1a7ff21e 	bne	r3,r9,3e4 <_gp+0xffff1fc4>
     41c:	0021883a 	mov	r16,zero
//			printf("%d", WordArray[i][j]);
//		}
//		printf("\n");
//	}

	for (int i = 0; i < 16; i++)
     420:	04401004 	movi	r17,64
	{
		DecWordArray[i] = BinaryArraytoDec(WordArray[i]);
     424:	8008913a 	slli	r4,r16,4
     428:	d9c00304 	addi	r7,sp,12
     42c:	3909883a 	add	r4,r7,r4
     430:	00001780 	call	178 <BinaryArraytoDec>
     434:	d9010304 	addi	r4,sp,1036
     438:	2407883a 	add	r3,r4,r16
     43c:	18800015 	stw	r2,0(r3)
     440:	84000104 	addi	r16,r16,4
//			printf("%d", WordArray[i][j]);
//		}
//		printf("\n");
//	}

	for (int i = 0; i < 16; i++)
     444:	847ff71e 	bne	r16,r17,424 <_gp+0xffff2004>
     448:	d8811004 	addi	r2,sp,1088
     44c:	000b883a 	mov	r5,zero
//		printf(" Decimal Array[%d]=%lu\n", i, DecWordArray[i]);
	}

	//! This loop is performing XOR operation on the WordArray by using the below formula#
	//!	W(i)=S1(W(i-3) XOR W(i-ˆ’8) XOR W(i-ˆ’14) XOR W(i-ˆ’16))
	for (int i = 16; i < 80; i++)
     450:	01804004 	movi	r6,256
	{
		//! Call the circular shift function and left shift the word array from 16 to 79 by 1 bit.
		DecWordArray[i] = CircularShiftHex(
     454:	11000017 	ldw	r4,0(r2)
     458:	10fffb17 	ldw	r3,-20(r2)
				DecWordArray[i - 3] ^ DecWordArray[i - 8] ^ DecWordArray[i - 14]
						^ DecWordArray[i - 16], 1);
     45c:	d9c10304 	addi	r7,sp,1036
     460:	10800104 	addi	r2,r2,4
	//! This loop is performing XOR operation on the WordArray by using the below formula#
	//!	W(i)=S1(W(i-3) XOR W(i-ˆ’8) XOR W(i-ˆ’14) XOR W(i-ˆ’16))
	for (int i = 16; i < 80; i++)
	{
		//! Call the circular shift function and left shift the word array from 16 to 79 by 1 bit.
		DecWordArray[i] = CircularShiftHex(
     464:	20c6f03a 	xor	r3,r4,r3
     468:	113ff417 	ldw	r4,-48(r2)
     46c:	1906f03a 	xor	r3,r3,r4
				DecWordArray[i - 3] ^ DecWordArray[i - 8] ^ DecWordArray[i - 14]
						^ DecWordArray[i - 16], 1);
     470:	3949883a 	add	r4,r7,r5
	//! This loop is performing XOR operation on the WordArray by using the below formula#
	//!	W(i)=S1(W(i-3) XOR W(i-ˆ’8) XOR W(i-ˆ’14) XOR W(i-ˆ’16))
	for (int i = 16; i < 80; i++)
	{
		//! Call the circular shift function and left shift the word array from 16 to 79 by 1 bit.
		DecWordArray[i] = CircularShiftHex(
     474:	21000017 	ldw	r4,0(r4)
     478:	29400104 	addi	r5,r5,4
     47c:	1906f03a 	xor	r3,r3,r4
     480:	1806107a 	roli	r3,r3,1
     484:	10c00215 	stw	r3,8(r2)
//		printf(" Decimal Array[%d]=%lu\n", i, DecWordArray[i]);
	}

	//! This loop is performing XOR operation on the WordArray by using the below formula#
	//!	W(i)=S1(W(i-3) XOR W(i-ˆ’8) XOR W(i-ˆ’14) XOR W(i-ˆ’16))
	for (int i = 16; i < 80; i++)
     488:	29bff21e 	bne	r5,r6,454 <_gp+0xffff2034>
	A = H0;
	B = H1;
	C = H2;
	D = H3;
	E = H4;
	printf("\n\t    A\t   B\t     C\t      D\t      E\n");
     48c:	01000034 	movhi	r4,0
     490:	2117ba04 	addi	r4,r4,24296
     494:	00051e80 	call	51e8 <puts>
	//! store the hash values defined in step 1 in the following variables.
	A = H0;
	B = H1;
	C = H2;
	D = H3;
	E = H4;
     498:	02f0f4f4 	movhi	r11,50131

	//! store the hash values defined in step 1 in the following variables.
	A = H0;
	B = H1;
	C = H2;
	D = H3;
     49c:	04840cb4 	movhi	r18,4146
	H4 = 0xC3D2E1F0; //! E = 3,285,377,520

	//! store the hash values defined in step 1 in the following variables.
	A = H0;
	B = H1;
	C = H2;
     4a0:	04e62ef4 	movhi	r19,39099
	H3 = 0x10325476; //! D = 271,733,878
	H4 = 0xC3D2E1F0; //! E = 3,285,377,520

	//! store the hash values defined in step 1 in the following variables.
	A = H0;
	B = H1;
     4a4:	05bbf3b4 	movhi	r22,61390
	H2 = 0x98BADCFE; //! C = 2,562,383,102
	H3 = 0x10325476; //! D = 271,733,878
	H4 = 0xC3D2E1F0; //! E = 3,285,377,520

	//! store the hash values defined in step 1 in the following variables.
	A = H0;
     4a8:	0519d174 	movhi	r20,26437
	B = H1;
	C = H2;
	D = H3;
	E = H4;
     4ac:	5af87c04 	addi	r11,r11,-7696

	//! store the hash values defined in step 1 in the following variables.
	A = H0;
	B = H1;
	C = H2;
	D = H3;
     4b0:	94951d84 	addi	r18,r18,21622
	H4 = 0xC3D2E1F0; //! E = 3,285,377,520

	//! store the hash values defined in step 1 in the following variables.
	A = H0;
	B = H1;
	C = H2;
     4b4:	9cf73f84 	addi	r19,r19,-8962
	H3 = 0x10325476; //! D = 271,733,878
	H4 = 0xC3D2E1F0; //! E = 3,285,377,520

	//! store the hash values defined in step 1 in the following variables.
	A = H0;
	B = H1;
     4b8:	b5aae244 	addi	r22,r22,-21623
	H2 = 0x98BADCFE; //! C = 2,562,383,102
	H3 = 0x10325476; //! D = 271,733,878
	H4 = 0xC3D2E1F0; //! E = 3,285,377,520

	//! store the hash values defined in step 1 in the following variables.
	A = H0;
     4bc:	a508c044 	addi	r20,r20,8961
	B = H1;
	C = H2;
	D = H3;
	E = H4;
	printf("\n\t    A\t   B\t     C\t      D\t      E\n");
	for (int i = 0; i < 80; i++)
     4c0:	0021883a 	mov	r16,zero
     4c4:	582f883a 	mov	r23,r11
     4c8:	9039883a 	mov	fp,r18
     4cc:	9811883a 	mov	r8,r19
     4d0:	b013883a 	mov	r9,r22
     4d4:	a015883a 	mov	r10,r20

uint32_t CircularShiftHex(uint32_t InputHex, uint32_t RotationValue)
{
	//!Rotate the given array by RotationValue times toward left
	uint32_t HexShift;
	HexShift = (InputHex << RotationValue)
     4d8:	05400084 	movi	r21,2
	B = H1;
	C = H2;
	D = H3;
	E = H4;
	printf("\n\t    A\t   B\t     C\t      D\t      E\n");
	for (int i = 0; i < 80; i++)
     4dc:	03001404 	movi	r12,80
		//! TEMP = S^5 *(A) + x(i) + E + W(i) + K(i).
		//! x(i) = f(i; B, C, D) - this is logic function call
		//! Here we are type casting the values after adding them because they are in uint32_t
		//! and the obtained result should be assigned to TEMP which is uint64_t.

		TEMP[i] = ((CircularShiftHex(A, 5) + LogicalFunction(i, B, C, D))
     4e0:	b00b883a 	mov	r5,r22
     4e4:	900f883a 	mov	r7,r18
     4e8:	980d883a 	mov	r6,r19
     4ec:	8009883a 	mov	r4,r16
     4f0:	da015415 	stw	r8,1360(sp)
     4f4:	da415515 	stw	r9,1364(sp)
     4f8:	da815615 	stw	r10,1368(sp)
     4fc:	db015715 	stw	r12,1372(sp)
     500:	dac15315 	stw	r11,1356(sp)
     504:	00003100 	call	310 <LogicalFunction>
				+ (E + DecWordArray[i] + constantK(i)));
     508:	8009883a 	mov	r4,r16
		//! TEMP = S^5 *(A) + x(i) + E + W(i) + K(i).
		//! x(i) = f(i; B, C, D) - this is logic function call
		//! Here we are type casting the values after adding them because they are in uint32_t
		//! and the obtained result should be assigned to TEMP which is uint64_t.

		TEMP[i] = ((CircularShiftHex(A, 5) + LogicalFunction(i, B, C, D))
     50c:	1023883a 	mov	r17,r2
				+ (E + DecWordArray[i] + constantK(i)));
     510:	000035c0 	call	35c <constantK>
     514:	8407883a 	add	r3,r16,r16
     518:	d9010304 	addi	r4,sp,1036
     51c:	18c7883a 	add	r3,r3,r3
     520:	20c7883a 	add	r3,r4,r3
     524:	a008117a 	roli	r4,r20,5
     528:	18c00017 	ldw	r3,0(r3)
     52c:	8885883a 	add	r2,r17,r2
     530:	dac15317 	ldw	r11,1356(sp)
     534:	20a3883a 	add	r17,r4,r2
     538:	88e3883a 	add	r17,r17,r3

uint32_t CircularShiftHex(uint32_t InputHex, uint32_t RotationValue)
{
	//!Rotate the given array by RotationValue times toward left
	uint32_t HexShift;
	HexShift = (InputHex << RotationValue)
     53c:	b546583a 	ror	r3,r22,r21
		//! x(i) = f(i; B, C, D) - this is logic function call
		//! Here we are type casting the values after adding them because they are in uint32_t
		//! and the obtained result should be assigned to TEMP which is uint64_t.

		TEMP[i] = ((CircularShiftHex(A, 5) + LogicalFunction(i, B, C, D))
				+ (E + DecWordArray[i] + constantK(i)));
     540:	8ae3883a 	add	r17,r17,r11
		D = C;
		C = CircularShiftHex(B, 30);
		B = A;
		A = TEMP[i];

		printf("t= %d:\t%lX %lX %lX %lX %lX\n", i, A, B, C, D, E);
     544:	01000034 	movhi	r4,0
     548:	d8c00015 	stw	r3,0(sp)
     54c:	800b883a 	mov	r5,r16
     550:	dc800215 	stw	r18,8(sp)
     554:	dcc00115 	stw	r19,4(sp)
     558:	a00f883a 	mov	r7,r20
     55c:	880d883a 	mov	r6,r17
     560:	2117c304 	addi	r4,r4,24332
     564:	d8c15315 	stw	r3,1356(sp)
     568:	000511c0 	call	511c <printf>
	B = H1;
	C = H2;
	D = H3;
	E = H4;
	printf("\n\t    A\t   B\t     C\t      D\t      E\n");
	for (int i = 0; i < 80; i++)
     56c:	db015717 	ldw	r12,1372(sp)
     570:	84000044 	addi	r16,r16,1
     574:	a02d883a 	mov	r22,r20
     578:	9017883a 	mov	r11,r18
     57c:	d8c15317 	ldw	r3,1356(sp)
     580:	da015417 	ldw	r8,1360(sp)
     584:	da415517 	ldw	r9,1364(sp)
     588:	da815617 	ldw	r10,1368(sp)
     58c:	83000426 	beq	r16,r12,5a0 <sha1+0x1f4>
     590:	9825883a 	mov	r18,r19
		//! x(i) = f(i; B, C, D) - this is logic function call
		//! Here we are type casting the values after adding them because they are in uint32_t
		//! and the obtained result should be assigned to TEMP which is uint64_t.

		TEMP[i] = ((CircularShiftHex(A, 5) + LogicalFunction(i, B, C, D))
				+ (E + DecWordArray[i] + constantK(i)));
     594:	8829883a 	mov	r20,r17

uint32_t CircularShiftHex(uint32_t InputHex, uint32_t RotationValue)
{
	//!Rotate the given array by RotationValue times toward left
	uint32_t HexShift;
	HexShift = (InputHex << RotationValue)
     598:	1827883a 	mov	r19,r3
     59c:	003fd006 	br	4e0 <_gp+0xffff20c0>

	//! As a final step, when all the chunks have been processed,
	//! the message digest is represented as the 160-bit string.

	static uint32_t FinalHash[5];
	FinalHash[0] = H0;
     5a0:	00800034 	movhi	r2,0
     5a4:	10995e04 	addi	r2,r2,25976
     5a8:	8aa3883a 	add	r17,r17,r10
	FinalHash[1] = H1;
     5ac:	a269883a 	add	r20,r20,r9
	FinalHash[2] = H2;
     5b0:	1a11883a 	add	r8,r3,r8
	FinalHash[3] = H3;
     5b4:	9f27883a 	add	r19,r19,fp
	FinalHash[4] = H4;
     5b8:	95e5883a 	add	r18,r18,r23

	//! As a final step, when all the chunks have been processed,
	//! the message digest is represented as the 160-bit string.

	static uint32_t FinalHash[5];
	FinalHash[0] = H0;
     5bc:	14400015 	stw	r17,0(r2)
	FinalHash[1] = H1;
     5c0:	15000115 	stw	r20,4(r2)
	FinalHash[2] = H2;
     5c4:	12000215 	stw	r8,8(r2)
	FinalHash[3] = H3;
     5c8:	14c00315 	stw	r19,12(r2)
	FinalHash[4] = H4;
     5cc:	14800415 	stw	r18,16(r2)
	return FinalHash;
}
     5d0:	dfc16117 	ldw	ra,1412(sp)
     5d4:	df016017 	ldw	fp,1408(sp)
     5d8:	ddc15f17 	ldw	r23,1404(sp)
     5dc:	dd815e17 	ldw	r22,1400(sp)
     5e0:	dd415d17 	ldw	r21,1396(sp)
     5e4:	dd015c17 	ldw	r20,1392(sp)
     5e8:	dcc15b17 	ldw	r19,1388(sp)
     5ec:	dc815a17 	ldw	r18,1384(sp)
     5f0:	dc415917 	ldw	r17,1380(sp)
     5f4:	dc015817 	ldw	r16,1376(sp)
     5f8:	dec16204 	addi	sp,sp,1416
     5fc:	f800283a 	ret

00000600 <main>:
#ifndef uint32_t
    typedef unsigned long uint32_t; /**< \brief 0 .. 4294967295      */
#endif

int main()
{
     600:	defd2e04 	addi	sp,sp,-2888
	//setvbuf( stdout, NULL, _IONBF, 0);

//	 The Input String is FSOC 2022/23 is fun!.
	char Input_string[512] = "FSOC22/23 is fun!";
     604:	01400034 	movhi	r5,0
     608:	01800484 	movi	r6,18
     60c:	2957ed04 	addi	r5,r5,24500
     610:	d9020004 	addi	r4,sp,2048
#ifndef uint32_t
    typedef unsigned long uint32_t; /**< \brief 0 .. 4294967295      */
#endif

int main()
{
     614:	dfc2d115 	stw	ra,2884(sp)
     618:	dc02ce15 	stw	r16,2872(sp)
     61c:	dc82d015 	stw	r18,2880(sp)
     620:	dc42cf15 	stw	r17,2876(sp)
	//setvbuf( stdout, NULL, _IONBF, 0);

//	 The Input String is FSOC 2022/23 is fun!.
	char Input_string[512] = "FSOC22/23 is fun!";
     624:	0004e5c0 	call	4e5c <memcpy>
     628:	01807b84 	movi	r6,494
     62c:	000b883a 	mov	r5,zero
     630:	d9020484 	addi	r4,sp,2066
     634:	0004e840 	call	4e84 <memset>
	printf("Input String: %s\n", Input_string);
     638:	01000034 	movhi	r4,0
     63c:	d9420004 	addi	r5,sp,2048
     640:	2117ca04 	addi	r4,r4,24360
     644:	000511c0 	call	511c <printf>

	char *Output;
//	int OriginalMessageLength=strlen(Input_string);

	Output = (char*) malloc(64 * sizeof(char)); //! 512 bits for the output string
	Output = StringToBinary(Input_string);
     648:	d9020004 	addi	r4,sp,2048
     64c:	000006c0 	call	6c <StringToBinary>

	//! Calculate the length of the Output String. Here we have 136 bits output.
	int OutputBits = strlen(Output);
     650:	1009883a 	mov	r4,r2

	char *Output;
//	int OriginalMessageLength=strlen(Input_string);

	Output = (char*) malloc(64 * sizeof(char)); //! 512 bits for the output string
	Output = StringToBinary(Input_string);
     654:	1021883a 	mov	r16,r2

	//! Calculate the length of the Output String. Here we have 136 bits output.
	int OutputBits = strlen(Output);
     658:	00052c00 	call	52c0 <strlen>

	int ZerosToAppend;
	uint32_t OutputBitsInteger[512];

	//!Obtained Output is in string format, we need to convert this into Integer format.
	for (int i = 0; Output[i] != 0; i++)
     65c:	0009883a 	mov	r4,zero
     660:	8107883a 	add	r3,r16,r4
     664:	19400007 	ldb	r5,0(r3)
     668:	28000726 	beq	r5,zero,688 <main+0x88>
	{
		OutputBitsInteger[i] = Output[i] - '0';
     66c:	2107883a 	add	r3,r4,r4
     670:	18c7883a 	add	r3,r3,r3
     674:	d8c7883a 	add	r3,sp,r3
     678:	297ff404 	addi	r5,r5,-48
     67c:	19400015 	stw	r5,0(r3)

	int ZerosToAppend;
	uint32_t OutputBitsInteger[512];

	//!Obtained Output is in string format, we need to convert this into Integer format.
	for (int i = 0; Output[i] != 0; i++)
     680:	21000044 	addi	r4,r4,1
     684:	003ff606 	br	660 <_gp+0xffff2240>
	//! Here 447 is obtained by removing 64 bits for Message length and 1 bit as magic number from 512 bits.
	//! Further we need 0s to append after the magic number 1 bit, to make the block to 512 bits
	ZerosToAppend = 447 - OutputBits;
//	printf("\nPadding zeroes length: %d\n", ZerosToAppend);

	OutputBitsInteger[OutputBits] = 1;
     688:	1089883a 	add	r4,r2,r2
     68c:	2109883a 	add	r4,r4,r4
     690:	d90b883a 	add	r5,sp,r4
     694:	01800044 	movi	r6,1
//		printf("%lu", OutputBitsInteger[i]);
//	}

	//! Here 447 is obtained by removing 64 bits for Message length and 1 bit as magic number from 512 bits.
	//! Further we need 0s to append after the magic number 1 bit, to make the block to 512 bits
	ZerosToAppend = 447 - OutputBits;
     698:	00c06fc4 	movi	r3,447
//	printf("\nPadding zeroes length: %d\n", ZerosToAppend);

	OutputBitsInteger[OutputBits] = 1;
     69c:	29800015 	stw	r6,0(r5)
//		printf("%lu", OutputBitsInteger[i]);
//	}

	//! Here 447 is obtained by removing 64 bits for Message length and 1 bit as magic number from 512 bits.
	//! Further we need 0s to append after the magic number 1 bit, to make the block to 512 bits
	ZerosToAppend = 447 - OutputBits;
     6a0:	1887c83a 	sub	r3,r3,r2
//	printf("\nPadding zeroes length: %d\n", ZerosToAppend);

	OutputBitsInteger[OutputBits] = 1;
	OutputBits = OutputBits + 1;
     6a4:	11a1883a 	add	r16,r2,r6

	int j;
	for (j = 0; j < ZerosToAppend; j++)
     6a8:	000b883a 	mov	r5,zero
     6ac:	29800044 	addi	r6,r5,1
     6b0:	28c0070e 	bge	r5,r3,6d0 <main+0xd0>
	{
		OutputBitsInteger[OutputBits + j] = 0;
     6b4:	318b883a 	add	r5,r6,r6
     6b8:	294b883a 	add	r5,r5,r5
     6bc:	290b883a 	add	r5,r5,r4
     6c0:	d94b883a 	add	r5,sp,r5
     6c4:	28000015 	stw	zero,0(r5)
     6c8:	300b883a 	mov	r5,r6
     6cc:	003ff706 	br	6ac <_gp+0xffff228c>

	}
	OutputBits = OutputBits + j;
     6d0:	1800010e 	bge	r3,zero,6d8 <main+0xd8>
     6d4:	0007883a 	mov	r3,zero
     6d8:	1c21883a 	add	r16,r3,r16

	uint32_t BinaryMessageLength[64];
	for (int i = 0; i < 64; i++)
     6dc:	01004004 	movi	r4,256
	for (j = 0; j < ZerosToAppend; j++)
	{
		OutputBitsInteger[OutputBits + j] = 0;

	}
	OutputBits = OutputBits + j;
     6e0:	0007883a 	mov	r3,zero

	uint32_t BinaryMessageLength[64];
	for (int i = 0; i < 64; i++)
	{
		BinaryMessageLength[i] = 0;
     6e4:	d9828004 	addi	r6,sp,2560
     6e8:	30cb883a 	add	r5,r6,r3
     6ec:	28000015 	stw	zero,0(r5)
     6f0:	18c00104 	addi	r3,r3,4

	}
	OutputBits = OutputBits + j;

	uint32_t BinaryMessageLength[64];
	for (int i = 0; i < 64; i++)
     6f4:	193ffb1e 	bne	r3,r4,6e4 <_gp+0xffff22c4>
	{
		BinaryMessageLength[i] = 0;
	}

//	printf("\nOriginal message length=%lu\n", OriginalMessageLength);
	int OutputLength = DecToBinary(OriginalMessageLength, BinaryMessageLength);
     6f8:	300b883a 	mov	r5,r6
     6fc:	1009883a 	mov	r4,r2
     700:	00001280 	call	128 <DecToBinary>
     704:	10ffff24 	muli	r3,r2,-4
     708:	d9c28004 	addi	r7,sp,2560

	for (int i = 0; i < OutputLength; i++)
     70c:	000b883a 	mov	r5,zero
     710:	18c04004 	addi	r3,r3,256
     714:	38c7883a 	add	r3,r7,r3
     718:	28800a0e 	bge	r5,r2,744 <main+0x144>
     71c:	2949883a 	add	r4,r5,r5
     720:	2109883a 	add	r4,r4,r4
     724:	da028004 	addi	r8,sp,2560
     728:	4109883a 	add	r4,r8,r4
	{
		BinaryMessageLength[64 - OutputLength + i] = BinaryMessageLength[i];
     72c:	21800017 	ldw	r6,0(r4)
	}

//	printf("\nOriginal message length=%lu\n", OriginalMessageLength);
	int OutputLength = DecToBinary(OriginalMessageLength, BinaryMessageLength);

	for (int i = 0; i < OutputLength; i++)
     730:	29400044 	addi	r5,r5,1
     734:	18c00104 	addi	r3,r3,4
	{
		BinaryMessageLength[64 - OutputLength + i] = BinaryMessageLength[i];
     738:	19bfff15 	stw	r6,-4(r3)
		BinaryMessageLength[i] = 0;
     73c:	20000015 	stw	zero,0(r4)
     740:	003ff506 	br	718 <_gp+0xffff22f8>
	}

	int temp;
	for (int i = (64 - OutputLength), j = 0; i < 64 - (OutputLength / 2);
     744:	1008d7fa 	srli	r4,r2,31
     748:	00c01004 	movi	r3,64
     74c:	1887c83a 	sub	r3,r3,r2
     750:	2085883a 	add	r2,r4,r2
     754:	1005d07a 	srai	r2,r2,1
     758:	18cb883a 	add	r5,r3,r3
     75c:	d902bf04 	addi	r4,sp,2812
     760:	0085c83a 	sub	r2,zero,r2
     764:	10800fc4 	addi	r2,r2,63
     768:	294b883a 	add	r5,r5,r5
     76c:	000f883a 	mov	r7,zero
     770:	10c00b16 	blt	r2,r3,7a0 <main+0x1a0>
     774:	394d883a 	add	r6,r7,r5
     778:	da028004 	addi	r8,sp,2560
			i++, j++)
	{
		temp = BinaryMessageLength[i];
		BinaryMessageLength[i] = BinaryMessageLength[63 - j];
     77c:	22400017 	ldw	r9,0(r4)
     780:	418d883a 	add	r6,r8,r6

	int temp;
	for (int i = (64 - OutputLength), j = 0; i < 64 - (OutputLength / 2);
			i++, j++)
	{
		temp = BinaryMessageLength[i];
     784:	32000017 	ldw	r8,0(r6)
		BinaryMessageLength[i] = BinaryMessageLength[63 - j];
     788:	32400015 	stw	r9,0(r6)
		BinaryMessageLength[i] = 0;
	}

	int temp;
	for (int i = (64 - OutputLength), j = 0; i < 64 - (OutputLength / 2);
			i++, j++)
     78c:	18c00044 	addi	r3,r3,1
	{
		temp = BinaryMessageLength[i];
		BinaryMessageLength[i] = BinaryMessageLength[63 - j];
		BinaryMessageLength[63 - j] = temp;
     790:	22000015 	stw	r8,0(r4)
     794:	39c00104 	addi	r7,r7,4
     798:	213fff04 	addi	r4,r4,-4
     79c:	003ff406 	br	770 <_gp+0xffff2350>
     7a0:	8405883a 	add	r2,r16,r16
     7a4:	1087883a 	add	r3,r2,r2
	}

	for (int i = OutputBits, j = 0; i < 512; i++, j++)
     7a8:	01407fc4 	movi	r5,511
		BinaryMessageLength[64 - OutputLength + i] = BinaryMessageLength[i];
		BinaryMessageLength[i] = 0;
	}

	int temp;
	for (int i = (64 - OutputLength), j = 0; i < 64 - (OutputLength / 2);
     7ac:	0005883a 	mov	r2,zero
		temp = BinaryMessageLength[i];
		BinaryMessageLength[i] = BinaryMessageLength[63 - j];
		BinaryMessageLength[63 - j] = temp;
	}

	for (int i = OutputBits, j = 0; i < 512; i++, j++)
     7b0:	2c000916 	blt	r5,r16,7d8 <main+0x1d8>
	{

		OutputBitsInteger[i] = BinaryMessageLength[j];
     7b4:	d9c28004 	addi	r7,sp,2560
     7b8:	388d883a 	add	r6,r7,r2
     7bc:	31800017 	ldw	r6,0(r6)
     7c0:	10c9883a 	add	r4,r2,r3
     7c4:	d909883a 	add	r4,sp,r4
     7c8:	21800015 	stw	r6,0(r4)
		temp = BinaryMessageLength[i];
		BinaryMessageLength[i] = BinaryMessageLength[63 - j];
		BinaryMessageLength[63 - j] = temp;
	}

	for (int i = OutputBits, j = 0; i < 512; i++, j++)
     7cc:	84000044 	addi	r16,r16,1
     7d0:	10800104 	addi	r2,r2,4
     7d4:	003ff606 	br	7b0 <_gp+0xffff2390>
	}
	uint32_t *FinalHash;

//! Passing the Output of the pre-processing (512 bits) to the sha1 function.
//! The previous hash to the sha1 is given as NULL/0.
	FinalHash=sha1(OutputBitsInteger, 0);
     7d8:	000b883a 	mov	r5,zero
     7dc:	d809883a 	mov	r4,sp
     7e0:	00003ac0 	call	3ac <sha1>

	printf("\nMessage Digest is=\n");
     7e4:	01000034 	movhi	r4,0
	}
	uint32_t *FinalHash;

//! Passing the Output of the pre-processing (512 bits) to the sha1 function.
//! The previous hash to the sha1 is given as NULL/0.
	FinalHash=sha1(OutputBitsInteger, 0);
     7e8:	1021883a 	mov	r16,r2

	printf("\nMessage Digest is=\n");
     7ec:	2117cf04 	addi	r4,r4,24380
     7f0:	00051e80 	call	51e8 <puts>
     7f4:	84800504 	addi	r18,r16,20
     7f8:	8023883a 	mov	r17,r16
	for(int i=0;i<5;i++)
	{
		alt_printf("%x\t",FinalHash[i]);
     7fc:	89400017 	ldw	r5,0(r17)
     800:	01000034 	movhi	r4,0
     804:	2117d404 	addi	r4,r4,24400
     808:	8c400104 	addi	r17,r17,4
     80c:	0005ba40 	call	5ba4 <alt_printf>
//! Passing the Output of the pre-processing (512 bits) to the sha1 function.
//! The previous hash to the sha1 is given as NULL/0.
	FinalHash=sha1(OutputBitsInteger, 0);

	printf("\nMessage Digest is=\n");
	for(int i=0;i<5;i++)
     810:	8cbffa1e 	bne	r17,r18,7fc <_gp+0xffff23dc>
	{
		alt_printf("%x\t",FinalHash[i]);
	}
	static char hash_array[] = {"44877bf4379e5486f63c89fd2e89188a341b5df6\0"};
	printf("\nInitial Saved Hash: %s", hash_array);
     814:	01400034 	movhi	r5,0
     818:	01000034 	movhi	r4,0
     81c:	2958c504 	addi	r5,r5,25364
     820:	2117d504 	addi	r4,r4,24404
     824:	000511c0 	call	511c <printf>
	char buffer[20];
	char FinalHash_Array[33] = "\0";
     828:	00800034 	movhi	r2,0
     82c:	10986d04 	addi	r2,r2,25012
     830:	1080000b 	ldhu	r2,0(r2)
     834:	018007c4 	movi	r6,31
     838:	000b883a 	mov	r5,zero
     83c:	d902c084 	addi	r4,sp,2818
     840:	d882c00d 	sth	r2,2816(sp)
     844:	0004e840 	call	4e84 <memset>
	for(int i=0; i<5; i++)
	{
		itoa(FinalHash[i], buffer, 16);
     848:	81000017 	ldw	r4,0(r16)
     84c:	01800404 	movi	r6,16
     850:	d942c844 	addi	r5,sp,2849
     854:	0004e300 	call	4e30 <itoa>
		strcat(FinalHash_Array, buffer);
     858:	d942c844 	addi	r5,sp,2849
     85c:	d902c004 	addi	r4,sp,2816
     860:	84000104 	addi	r16,r16,4
     864:	000524c0 	call	524c <strcat>
	}
	static char hash_array[] = {"44877bf4379e5486f63c89fd2e89188a341b5df6\0"};
	printf("\nInitial Saved Hash: %s", hash_array);
	char buffer[20];
	char FinalHash_Array[33] = "\0";
	for(int i=0; i<5; i++)
     868:	84bff71e 	bne	r16,r18,848 <_gp+0xffff2428>
	{
		itoa(FinalHash[i], buffer, 16);
		strcat(FinalHash_Array, buffer);
	}
	printf("\nFinal Hash: %s",FinalHash_Array);
     86c:	01000034 	movhi	r4,0
     870:	d942c004 	addi	r5,sp,2816
     874:	2117db04 	addi	r4,r4,24428
     878:	000511c0 	call	511c <printf>

	LED = 0xFF; //Initially the LEDs are off
     87c:	04200074 	movhi	r16,32769
     880:	84040c04 	addi	r16,r16,4144
     884:	04403fc4 	movi	r17,255
	if(strcmp(hash_array, FinalHash_Array) == 0)
     888:	01000034 	movhi	r4,0
		itoa(FinalHash[i], buffer, 16);
		strcat(FinalHash_Array, buffer);
	}
	printf("\nFinal Hash: %s",FinalHash_Array);

	LED = 0xFF; //Initially the LEDs are off
     88c:	84400015 	stw	r17,0(r16)
	if(strcmp(hash_array, FinalHash_Array) == 0)
     890:	d942c004 	addi	r5,sp,2816
     894:	2118c504 	addi	r4,r4,25364
     898:	00052880 	call	5288 <strcmp>
     89c:	1000041e 	bne	r2,zero,8b0 <main+0x2b0>
	{
		LED = 0x00;
		printf("\nHash values are same");
     8a0:	01000034 	movhi	r4,0
	printf("\nFinal Hash: %s",FinalHash_Array);

	LED = 0xFF; //Initially the LEDs are off
	if(strcmp(hash_array, FinalHash_Array) == 0)
	{
		LED = 0x00;
     8a4:	80000015 	stw	zero,0(r16)
		printf("\nHash values are same");
     8a8:	2117df04 	addi	r4,r4,24444
     8ac:	00000306 	br	8bc <main+0x2bc>
	}
	else
	{
		LED = 0xFF;
		printf("\nHash values are mismatching!!");
     8b0:	01000034 	movhi	r4,0
		LED = 0x00;
		printf("\nHash values are same");
	}
	else
	{
		LED = 0xFF;
     8b4:	84400015 	stw	r17,0(r16)
		printf("\nHash values are mismatching!!");
     8b8:	2117e504 	addi	r4,r4,24468
     8bc:	000511c0 	call	511c <printf>
	}
	return 0;

}
     8c0:	0005883a 	mov	r2,zero
     8c4:	dfc2d117 	ldw	ra,2884(sp)
     8c8:	dc82d017 	ldw	r18,2880(sp)
     8cc:	dc42cf17 	ldw	r17,2876(sp)
     8d0:	dc02ce17 	ldw	r16,2872(sp)
     8d4:	dec2d204 	addi	sp,sp,2888
     8d8:	f800283a 	ret

000008dc <pow>:
     8dc:	deffee04 	addi	sp,sp,-72
     8e0:	dc800b15 	stw	r18,44(sp)
     8e4:	04800034 	movhi	r18,0
     8e8:	ddc01015 	stw	r23,64(sp)
     8ec:	dd800f15 	stw	r22,60(sp)
     8f0:	dd400e15 	stw	r21,56(sp)
     8f4:	dd000d15 	stw	r20,52(sp)
     8f8:	dcc00c15 	stw	r19,48(sp)
     8fc:	dc400a15 	stw	r17,40(sp)
     900:	dc000915 	stw	r16,36(sp)
     904:	dfc01115 	stw	ra,68(sp)
     908:	94990804 	addi	r18,r18,25632
     90c:	202f883a 	mov	r23,r4
     910:	282d883a 	mov	r22,r5
     914:	302b883a 	mov	r21,r6
     918:	3829883a 	mov	r20,r7
     91c:	0000da00 	call	da0 <__ieee754_pow>
     920:	1023883a 	mov	r17,r2
     924:	90800017 	ldw	r2,0(r18)
     928:	04ffffc4 	movi	r19,-1
     92c:	1821883a 	mov	r16,r3
     930:	14c00426 	beq	r2,r19,944 <pow+0x68>
     934:	a809883a 	mov	r4,r21
     938:	a00b883a 	mov	r5,r20
     93c:	00020fc0 	call	20fc <__fpclassifyd>
     940:	10000d1e 	bne	r2,zero,978 <pow+0x9c>
     944:	8805883a 	mov	r2,r17
     948:	8007883a 	mov	r3,r16
     94c:	dfc01117 	ldw	ra,68(sp)
     950:	ddc01017 	ldw	r23,64(sp)
     954:	dd800f17 	ldw	r22,60(sp)
     958:	dd400e17 	ldw	r21,56(sp)
     95c:	dd000d17 	ldw	r20,52(sp)
     960:	dcc00c17 	ldw	r19,48(sp)
     964:	dc800b17 	ldw	r18,44(sp)
     968:	dc400a17 	ldw	r17,40(sp)
     96c:	dc000917 	ldw	r16,36(sp)
     970:	dec01204 	addi	sp,sp,72
     974:	f800283a 	ret
     978:	b809883a 	mov	r4,r23
     97c:	b00b883a 	mov	r5,r22
     980:	00020fc0 	call	20fc <__fpclassifyd>
     984:	000d883a 	mov	r6,zero
     988:	000f883a 	mov	r7,zero
     98c:	1000201e 	bne	r2,zero,a10 <pow+0x134>
     990:	a809883a 	mov	r4,r21
     994:	a00b883a 	mov	r5,r20
     998:	00037300 	call	3730 <__eqdf2>
     99c:	103fe91e 	bne	r2,zero,944 <_gp+0xffff2524>
     9a0:	01000044 	movi	r4,1
     9a4:	d9000015 	stw	r4,0(sp)
     9a8:	90800017 	ldw	r2,0(r18)
     9ac:	01000034 	movhi	r4,0
     9b0:	00cffc34 	movhi	r3,16368
     9b4:	21187604 	addi	r4,r4,25048
     9b8:	d9000115 	stw	r4,4(sp)
     9bc:	d8000815 	stw	zero,32(sp)
     9c0:	ddc00215 	stw	r23,8(sp)
     9c4:	dd800315 	stw	r22,12(sp)
     9c8:	dd400415 	stw	r21,16(sp)
     9cc:	dd000515 	stw	r20,20(sp)
     9d0:	d8000615 	stw	zero,24(sp)
     9d4:	d8c00715 	stw	r3,28(sp)
     9d8:	14c02826 	beq	r2,r19,a7c <pow+0x1a0>
     9dc:	01000084 	movi	r4,2
     9e0:	11002626 	beq	r2,r4,a7c <pow+0x1a0>
     9e4:	d809883a 	mov	r4,sp
     9e8:	00021700 	call	2170 <matherr>
     9ec:	10006b26 	beq	r2,zero,b9c <pow+0x2c0>
     9f0:	d8800817 	ldw	r2,32(sp)
     9f4:	10000326 	beq	r2,zero,a04 <pow+0x128>
     9f8:	0004db80 	call	4db8 <__errno>
     9fc:	d8c00817 	ldw	r3,32(sp)
     a00:	10c00015 	stw	r3,0(r2)
     a04:	d8800617 	ldw	r2,24(sp)
     a08:	d8c00717 	ldw	r3,28(sp)
     a0c:	003fcf06 	br	94c <_gp+0xffff252c>
     a10:	b809883a 	mov	r4,r23
     a14:	b00b883a 	mov	r5,r22
     a18:	00037300 	call	3730 <__eqdf2>
     a1c:	1000191e 	bne	r2,zero,a84 <pow+0x1a8>
     a20:	000d883a 	mov	r6,zero
     a24:	000f883a 	mov	r7,zero
     a28:	a809883a 	mov	r4,r21
     a2c:	a00b883a 	mov	r5,r20
     a30:	00037300 	call	3730 <__eqdf2>
     a34:	10003a1e 	bne	r2,zero,b20 <pow+0x244>
     a38:	00c00044 	movi	r3,1
     a3c:	d8c00015 	stw	r3,0(sp)
     a40:	90800017 	ldw	r2,0(r18)
     a44:	00c00034 	movhi	r3,0
     a48:	18d87604 	addi	r3,r3,25048
     a4c:	d8c00115 	stw	r3,4(sp)
     a50:	d8000815 	stw	zero,32(sp)
     a54:	ddc00215 	stw	r23,8(sp)
     a58:	dd800315 	stw	r22,12(sp)
     a5c:	dd400415 	stw	r21,16(sp)
     a60:	dd000515 	stw	r20,20(sp)
     a64:	d8000615 	stw	zero,24(sp)
     a68:	d8000715 	stw	zero,28(sp)
     a6c:	103fdd26 	beq	r2,zero,9e4 <_gp+0xffff25c4>
     a70:	0005883a 	mov	r2,zero
     a74:	00cffc34 	movhi	r3,16368
     a78:	003fb406 	br	94c <_gp+0xffff252c>
     a7c:	0005883a 	mov	r2,zero
     a80:	003fb206 	br	94c <_gp+0xffff252c>
     a84:	8809883a 	mov	r4,r17
     a88:	800b883a 	mov	r5,r16
     a8c:	00020e00 	call	20e0 <finite>
     a90:	10004626 	beq	r2,zero,bac <pow+0x2d0>
     a94:	000d883a 	mov	r6,zero
     a98:	000f883a 	mov	r7,zero
     a9c:	8809883a 	mov	r4,r17
     aa0:	800b883a 	mov	r5,r16
     aa4:	00037300 	call	3730 <__eqdf2>
     aa8:	103fa61e 	bne	r2,zero,944 <_gp+0xffff2524>
     aac:	b809883a 	mov	r4,r23
     ab0:	b00b883a 	mov	r5,r22
     ab4:	00020e00 	call	20e0 <finite>
     ab8:	103fa226 	beq	r2,zero,944 <_gp+0xffff2524>
     abc:	a809883a 	mov	r4,r21
     ac0:	a00b883a 	mov	r5,r20
     ac4:	00020e00 	call	20e0 <finite>
     ac8:	103f9e26 	beq	r2,zero,944 <_gp+0xffff2524>
     acc:	00800104 	movi	r2,4
     ad0:	d8800015 	stw	r2,0(sp)
     ad4:	90c00017 	ldw	r3,0(r18)
     ad8:	00800034 	movhi	r2,0
     adc:	10987604 	addi	r2,r2,25048
     ae0:	d8800115 	stw	r2,4(sp)
     ae4:	d8000815 	stw	zero,32(sp)
     ae8:	ddc00215 	stw	r23,8(sp)
     aec:	dd800315 	stw	r22,12(sp)
     af0:	dd400415 	stw	r21,16(sp)
     af4:	dd000515 	stw	r20,20(sp)
     af8:	d8000615 	stw	zero,24(sp)
     afc:	d8000715 	stw	zero,28(sp)
     b00:	00800084 	movi	r2,2
     b04:	18804726 	beq	r3,r2,c24 <pow+0x348>
     b08:	d809883a 	mov	r4,sp
     b0c:	00021700 	call	2170 <matherr>
     b10:	10004426 	beq	r2,zero,c24 <pow+0x348>
     b14:	d8800817 	ldw	r2,32(sp)
     b18:	103fba26 	beq	r2,zero,a04 <_gp+0xffff25e4>
     b1c:	003fb606 	br	9f8 <_gp+0xffff25d8>
     b20:	a809883a 	mov	r4,r21
     b24:	a00b883a 	mov	r5,r20
     b28:	00020e00 	call	20e0 <finite>
     b2c:	103f8526 	beq	r2,zero,944 <_gp+0xffff2524>
     b30:	000d883a 	mov	r6,zero
     b34:	000f883a 	mov	r7,zero
     b38:	a809883a 	mov	r4,r21
     b3c:	a00b883a 	mov	r5,r20
     b40:	00038940 	call	3894 <__ledf2>
     b44:	103f7f0e 	bge	r2,zero,944 <_gp+0xffff2524>
     b48:	00c00044 	movi	r3,1
     b4c:	d8c00015 	stw	r3,0(sp)
     b50:	90800017 	ldw	r2,0(r18)
     b54:	00c00034 	movhi	r3,0
     b58:	18d87604 	addi	r3,r3,25048
     b5c:	d8c00115 	stw	r3,4(sp)
     b60:	d8000815 	stw	zero,32(sp)
     b64:	ddc00215 	stw	r23,8(sp)
     b68:	dd800315 	stw	r22,12(sp)
     b6c:	dd400415 	stw	r21,16(sp)
     b70:	dd000515 	stw	r20,20(sp)
     b74:	d8000615 	stw	zero,24(sp)
     b78:	10002526 	beq	r2,zero,c10 <pow+0x334>
     b7c:	00fffc34 	movhi	r3,65520
     b80:	d8c00715 	stw	r3,28(sp)
     b84:	00c00084 	movi	r3,2
     b88:	10c0221e 	bne	r2,r3,c14 <pow+0x338>
     b8c:	0004db80 	call	4db8 <__errno>
     b90:	00c00844 	movi	r3,33
     b94:	10c00015 	stw	r3,0(r2)
     b98:	003fde06 	br	b14 <_gp+0xffff26f4>
     b9c:	0004db80 	call	4db8 <__errno>
     ba0:	00c00844 	movi	r3,33
     ba4:	10c00015 	stw	r3,0(r2)
     ba8:	003f9106 	br	9f0 <_gp+0xffff25d0>
     bac:	b809883a 	mov	r4,r23
     bb0:	b00b883a 	mov	r5,r22
     bb4:	00020e00 	call	20e0 <finite>
     bb8:	103fb626 	beq	r2,zero,a94 <_gp+0xffff2674>
     bbc:	a809883a 	mov	r4,r21
     bc0:	a00b883a 	mov	r5,r20
     bc4:	00020e00 	call	20e0 <finite>
     bc8:	103fb226 	beq	r2,zero,a94 <_gp+0xffff2674>
     bcc:	8809883a 	mov	r4,r17
     bd0:	800b883a 	mov	r5,r16
     bd4:	00020fc0 	call	20fc <__fpclassifyd>
     bd8:	1000161e 	bne	r2,zero,c34 <pow+0x358>
     bdc:	00800044 	movi	r2,1
     be0:	d8800015 	stw	r2,0(sp)
     be4:	94000017 	ldw	r16,0(r18)
     be8:	00800034 	movhi	r2,0
     bec:	10987604 	addi	r2,r2,25048
     bf0:	d8800115 	stw	r2,4(sp)
     bf4:	d8000815 	stw	zero,32(sp)
     bf8:	ddc00215 	stw	r23,8(sp)
     bfc:	dd800315 	stw	r22,12(sp)
     c00:	dd400415 	stw	r21,16(sp)
     c04:	dd000515 	stw	r20,20(sp)
     c08:	8000281e 	bne	r16,zero,cac <pow+0x3d0>
     c0c:	d8000615 	stw	zero,24(sp)
     c10:	d8000715 	stw	zero,28(sp)
     c14:	d809883a 	mov	r4,sp
     c18:	00021700 	call	2170 <matherr>
     c1c:	103fbd1e 	bne	r2,zero,b14 <_gp+0xffff26f4>
     c20:	003fda06 	br	b8c <_gp+0xffff276c>
     c24:	0004db80 	call	4db8 <__errno>
     c28:	00c00884 	movi	r3,34
     c2c:	10c00015 	stw	r3,0(r2)
     c30:	003fb806 	br	b14 <_gp+0xffff26f4>
     c34:	00c000c4 	movi	r3,3
     c38:	d8c00015 	stw	r3,0(sp)
     c3c:	90800017 	ldw	r2,0(r18)
     c40:	00c00034 	movhi	r3,0
     c44:	18d87604 	addi	r3,r3,25048
     c48:	d8c00115 	stw	r3,4(sp)
     c4c:	d8000815 	stw	zero,32(sp)
     c50:	ddc00215 	stw	r23,8(sp)
     c54:	dd800315 	stw	r22,12(sp)
     c58:	dd400415 	stw	r21,16(sp)
     c5c:	dd000515 	stw	r20,20(sp)
     c60:	000d883a 	mov	r6,zero
     c64:	000f883a 	mov	r7,zero
     c68:	b809883a 	mov	r4,r23
     c6c:	b00b883a 	mov	r5,r22
     c70:	1000181e 	bne	r2,zero,cd4 <pow+0x3f8>
     c74:	00b80034 	movhi	r2,57344
     c78:	d8800615 	stw	r2,24(sp)
     c7c:	0091fc34 	movhi	r2,18416
     c80:	10bfffc4 	addi	r2,r2,-1
     c84:	d8800715 	stw	r2,28(sp)
     c88:	00038940 	call	3894 <__ledf2>
     c8c:	10001a16 	blt	r2,zero,cf8 <pow+0x41c>
     c90:	d809883a 	mov	r4,sp
     c94:	00021700 	call	2170 <matherr>
     c98:	103f551e 	bne	r2,zero,9f0 <_gp+0xffff25d0>
     c9c:	0004db80 	call	4db8 <__errno>
     ca0:	00c00884 	movi	r3,34
     ca4:	10c00015 	stw	r3,0(r2)
     ca8:	003f5106 	br	9f0 <_gp+0xffff25d0>
     cac:	000d883a 	mov	r6,zero
     cb0:	000f883a 	mov	r7,zero
     cb4:	0009883a 	mov	r4,zero
     cb8:	000b883a 	mov	r5,zero
     cbc:	0002e480 	call	2e48 <__divdf3>
     cc0:	d8800615 	stw	r2,24(sp)
     cc4:	d8c00715 	stw	r3,28(sp)
     cc8:	00800084 	movi	r2,2
     ccc:	80bfaf26 	beq	r16,r2,b8c <_gp+0xffff276c>
     cd0:	003fd006 	br	c14 <_gp+0xffff27f4>
     cd4:	009ffc34 	movhi	r2,32752
     cd8:	d8000615 	stw	zero,24(sp)
     cdc:	d8800715 	stw	r2,28(sp)
     ce0:	00038940 	call	3894 <__ledf2>
     ce4:	10001a16 	blt	r2,zero,d50 <pow+0x474>
     ce8:	90c00017 	ldw	r3,0(r18)
     cec:	00800084 	movi	r2,2
     cf0:	18bfe71e 	bne	r3,r2,c90 <_gp+0xffff2870>
     cf4:	003fe906 	br	c9c <_gp+0xffff287c>
     cf8:	000d883a 	mov	r6,zero
     cfc:	01cff834 	movhi	r7,16352
     d00:	a809883a 	mov	r4,r21
     d04:	a00b883a 	mov	r5,r20
     d08:	00039880 	call	3988 <__muldf3>
     d0c:	1009883a 	mov	r4,r2
     d10:	180b883a 	mov	r5,r3
     d14:	1023883a 	mov	r17,r2
     d18:	1821883a 	mov	r16,r3
     d1c:	00021840 	call	2184 <rint>
     d20:	100d883a 	mov	r6,r2
     d24:	180f883a 	mov	r7,r3
     d28:	8809883a 	mov	r4,r17
     d2c:	800b883a 	mov	r5,r16
     d30:	00037300 	call	3730 <__eqdf2>
     d34:	103fec26 	beq	r2,zero,ce8 <_gp+0xffff28c8>
     d38:	00b80034 	movhi	r2,57344
     d3c:	d8800615 	stw	r2,24(sp)
     d40:	00b1fc34 	movhi	r2,51184
     d44:	10bfffc4 	addi	r2,r2,-1
     d48:	d8800715 	stw	r2,28(sp)
     d4c:	003fe606 	br	ce8 <_gp+0xffff28c8>
     d50:	000d883a 	mov	r6,zero
     d54:	01cff834 	movhi	r7,16352
     d58:	a809883a 	mov	r4,r21
     d5c:	a00b883a 	mov	r5,r20
     d60:	00039880 	call	3988 <__muldf3>
     d64:	1009883a 	mov	r4,r2
     d68:	180b883a 	mov	r5,r3
     d6c:	1023883a 	mov	r17,r2
     d70:	1821883a 	mov	r16,r3
     d74:	00021840 	call	2184 <rint>
     d78:	100d883a 	mov	r6,r2
     d7c:	180f883a 	mov	r7,r3
     d80:	8809883a 	mov	r4,r17
     d84:	800b883a 	mov	r5,r16
     d88:	00037300 	call	3730 <__eqdf2>
     d8c:	103fd626 	beq	r2,zero,ce8 <_gp+0xffff28c8>
     d90:	00bffc34 	movhi	r2,65520
     d94:	d8000615 	stw	zero,24(sp)
     d98:	d8800715 	stw	r2,28(sp)
     d9c:	003fd206 	br	ce8 <_gp+0xffff28c8>

00000da0 <__ieee754_pow>:
     da0:	00a00034 	movhi	r2,32768
     da4:	deffea04 	addi	sp,sp,-88
     da8:	10bfffc4 	addi	r2,r2,-1
     dac:	dc800e15 	stw	r18,56(sp)
     db0:	38a4703a 	and	r18,r7,r2
     db4:	dfc01515 	stw	ra,84(sp)
     db8:	df001415 	stw	fp,80(sp)
     dbc:	ddc01315 	stw	r23,76(sp)
     dc0:	dd801215 	stw	r22,72(sp)
     dc4:	dd401115 	stw	r21,68(sp)
     dc8:	dd001015 	stw	r20,64(sp)
     dcc:	dcc00f15 	stw	r19,60(sp)
     dd0:	dc400d15 	stw	r17,52(sp)
     dd4:	dc000c15 	stw	r16,48(sp)
     dd8:	9186b03a 	or	r3,r18,r6
     ddc:	18002a26 	beq	r3,zero,e88 <__ieee754_pow+0xe8>
     de0:	28a2703a 	and	r17,r5,r2
     de4:	009ffc34 	movhi	r2,32752
     de8:	14402316 	blt	r2,r17,e78 <__ieee754_pow+0xd8>
     dec:	88802126 	beq	r17,r2,e74 <__ieee754_pow+0xd4>
     df0:	14802116 	blt	r2,r18,e78 <__ieee754_pow+0xd8>
     df4:	009ffc34 	movhi	r2,32752
     df8:	90807326 	beq	r18,r2,fc8 <__ieee754_pow+0x228>
     dfc:	2827883a 	mov	r19,r5
     e00:	2021883a 	mov	r16,r4
     e04:	302d883a 	mov	r22,r6
     e08:	3839883a 	mov	fp,r7
     e0c:	28007016 	blt	r5,zero,fd0 <__ieee754_pow+0x230>
     e10:	002b883a 	mov	r21,zero
     e14:	b0003a1e 	bne	r22,zero,f00 <__ieee754_pow+0x160>
     e18:	009ffc34 	movhi	r2,32752
     e1c:	90807f26 	beq	r18,r2,101c <__ieee754_pow+0x27c>
     e20:	008ffc34 	movhi	r2,16368
     e24:	90805426 	beq	r18,r2,f78 <__ieee754_pow+0x1d8>
     e28:	00900034 	movhi	r2,16384
     e2c:	e0833b26 	beq	fp,r2,1b1c <__ieee754_pow+0xd7c>
     e30:	008ff834 	movhi	r2,16352
     e34:	e080321e 	bne	fp,r2,f00 <__ieee754_pow+0x160>
     e38:	98003116 	blt	r19,zero,f00 <__ieee754_pow+0x160>
     e3c:	8009883a 	mov	r4,r16
     e40:	980b883a 	mov	r5,r19
     e44:	dfc01517 	ldw	ra,84(sp)
     e48:	df001417 	ldw	fp,80(sp)
     e4c:	ddc01317 	ldw	r23,76(sp)
     e50:	dd801217 	ldw	r22,72(sp)
     e54:	dd401117 	ldw	r21,68(sp)
     e58:	dd001017 	ldw	r20,64(sp)
     e5c:	dcc00f17 	ldw	r19,60(sp)
     e60:	dc800e17 	ldw	r18,56(sp)
     e64:	dc400d17 	ldw	r17,52(sp)
     e68:	dc000c17 	ldw	r16,48(sp)
     e6c:	dec01604 	addi	sp,sp,88
     e70:	0001e441 	jmpi	1e44 <__ieee754_sqrt>
     e74:	20001226 	beq	r4,zero,ec0 <__ieee754_pow+0x120>
     e78:	00b00434 	movhi	r2,49168
     e7c:	8885883a 	add	r2,r17,r2
     e80:	1108b03a 	or	r4,r2,r4
     e84:	20000f1e 	bne	r4,zero,ec4 <__ieee754_pow+0x124>
     e88:	0005883a 	mov	r2,zero
     e8c:	00cffc34 	movhi	r3,16368
     e90:	dfc01517 	ldw	ra,84(sp)
     e94:	df001417 	ldw	fp,80(sp)
     e98:	ddc01317 	ldw	r23,76(sp)
     e9c:	dd801217 	ldw	r22,72(sp)
     ea0:	dd401117 	ldw	r21,68(sp)
     ea4:	dd001017 	ldw	r20,64(sp)
     ea8:	dcc00f17 	ldw	r19,60(sp)
     eac:	dc800e17 	ldw	r18,56(sp)
     eb0:	dc400d17 	ldw	r17,52(sp)
     eb4:	dc000c17 	ldw	r16,48(sp)
     eb8:	dec01604 	addi	sp,sp,88
     ebc:	f800283a 	ret
     ec0:	8cbfcc0e 	bge	r17,r18,df4 <_gp+0xffff29d4>
     ec4:	01000034 	movhi	r4,0
     ec8:	2118c404 	addi	r4,r4,25360
     ecc:	dfc01517 	ldw	ra,84(sp)
     ed0:	df001417 	ldw	fp,80(sp)
     ed4:	ddc01317 	ldw	r23,76(sp)
     ed8:	dd801217 	ldw	r22,72(sp)
     edc:	dd401117 	ldw	r21,68(sp)
     ee0:	dd001017 	ldw	r20,64(sp)
     ee4:	dcc00f17 	ldw	r19,60(sp)
     ee8:	dc800e17 	ldw	r18,56(sp)
     eec:	dc400d17 	ldw	r17,52(sp)
     ef0:	dc000c17 	ldw	r16,48(sp)
     ef4:	dec01604 	addi	sp,sp,88
     ef8:	00021781 	jmpi	2178 <nan>
     efc:	002b883a 	mov	r21,zero
     f00:	8009883a 	mov	r4,r16
     f04:	980b883a 	mov	r5,r19
     f08:	00020cc0 	call	20cc <fabs>
     f0c:	102f883a 	mov	r23,r2
     f10:	80000f26 	beq	r16,zero,f50 <__ieee754_pow+0x1b0>
     f14:	9816d7fa 	srli	r11,r19,31
     f18:	5affffc4 	addi	r11,r11,-1
     f1c:	aac4b03a 	or	r2,r21,r11
     f20:	10004b26 	beq	r2,zero,1050 <__ieee754_pow+0x2b0>
     f24:	00907834 	movhi	r2,16864
     f28:	1480540e 	bge	r2,r18,107c <__ieee754_pow+0x2dc>
     f2c:	0090fc34 	movhi	r2,17392
     f30:	14832d0e 	bge	r2,r18,1be8 <__ieee754_pow+0xe48>
     f34:	008ffc34 	movhi	r2,16368
     f38:	10bfffc4 	addi	r2,r2,-1
     f3c:	14401916 	blt	r2,r17,fa4 <__ieee754_pow+0x204>
     f40:	e0001916 	blt	fp,zero,fa8 <__ieee754_pow+0x208>
     f44:	0005883a 	mov	r2,zero
     f48:	0007883a 	mov	r3,zero
     f4c:	003fd006 	br	e90 <_gp+0xffff2a70>
     f50:	88000526 	beq	r17,zero,f68 <__ieee754_pow+0x1c8>
     f54:	00900034 	movhi	r2,16384
     f58:	10bfffc4 	addi	r2,r2,-1
     f5c:	9884703a 	and	r2,r19,r2
     f60:	010ffc34 	movhi	r4,16368
     f64:	113feb1e 	bne	r2,r4,f14 <_gp+0xffff2af4>
     f68:	e0000716 	blt	fp,zero,f88 <__ieee754_pow+0x1e8>
     f6c:	9802e216 	blt	r19,zero,1af8 <__ieee754_pow+0xd58>
     f70:	b805883a 	mov	r2,r23
     f74:	003fc606 	br	e90 <_gp+0xffff2a70>
     f78:	e0037516 	blt	fp,zero,1d50 <__ieee754_pow+0xfb0>
     f7c:	8005883a 	mov	r2,r16
     f80:	9807883a 	mov	r3,r19
     f84:	003fc206 	br	e90 <_gp+0xffff2a70>
     f88:	b80d883a 	mov	r6,r23
     f8c:	180f883a 	mov	r7,r3
     f90:	0009883a 	mov	r4,zero
     f94:	014ffc34 	movhi	r5,16368
     f98:	0002e480 	call	2e48 <__divdf3>
     f9c:	102f883a 	mov	r23,r2
     fa0:	003ff206 	br	f6c <_gp+0xffff2b4c>
     fa4:	073fe70e 	bge	zero,fp,f44 <_gp+0xffff2b24>
     fa8:	01a20034 	movhi	r6,34816
     fac:	01df8e34 	movhi	r7,32312
     fb0:	319d6704 	addi	r6,r6,30108
     fb4:	39f90f04 	addi	r7,r7,-7108
     fb8:	3009883a 	mov	r4,r6
     fbc:	380b883a 	mov	r5,r7
     fc0:	00039880 	call	3988 <__muldf3>
     fc4:	003fb206 	br	e90 <_gp+0xffff2a70>
     fc8:	303f8c26 	beq	r6,zero,dfc <_gp+0xffff29dc>
     fcc:	003faa06 	br	e78 <_gp+0xffff2a58>
     fd0:	0090d034 	movhi	r2,17216
     fd4:	10bfffc4 	addi	r2,r2,-1
     fd8:	14801b16 	blt	r2,r18,1048 <__ieee754_pow+0x2a8>
     fdc:	008ffc34 	movhi	r2,16368
     fe0:	10bfffc4 	addi	r2,r2,-1
     fe4:	14bf8a0e 	bge	r2,r18,e10 <_gp+0xffff29f0>
     fe8:	9005d53a 	srai	r2,r18,20
     fec:	00c00504 	movi	r3,20
     ff0:	10bf0044 	addi	r2,r2,-1023
     ff4:	18836b0e 	bge	r3,r2,1da4 <__ieee754_pow+0x1004>
     ff8:	00c00d04 	movi	r3,52
     ffc:	1885c83a 	sub	r2,r3,r2
    1000:	3086d83a 	srl	r3,r6,r2
    1004:	1884983a 	sll	r2,r3,r2
    1008:	30bf811e 	bne	r6,r2,e10 <_gp+0xffff29f0>
    100c:	18c0004c 	andi	r3,r3,1
    1010:	02800084 	movi	r10,2
    1014:	50ebc83a 	sub	r21,r10,r3
    1018:	003f7e06 	br	e14 <_gp+0xffff29f4>
    101c:	01300434 	movhi	r4,49168
    1020:	8909883a 	add	r4,r17,r4
    1024:	2408b03a 	or	r4,r4,r16
    1028:	203f9726 	beq	r4,zero,e88 <_gp+0xffff2a68>
    102c:	008ffc34 	movhi	r2,16368
    1030:	10bfffc4 	addi	r2,r2,-1
    1034:	1442e60e 	bge	r2,r17,1bd0 <__ieee754_pow+0xe30>
    1038:	e03fc216 	blt	fp,zero,f44 <_gp+0xffff2b24>
    103c:	0005883a 	mov	r2,zero
    1040:	e007883a 	mov	r3,fp
    1044:	003f9206 	br	e90 <_gp+0xffff2a70>
    1048:	05400084 	movi	r21,2
    104c:	003f7106 	br	e14 <_gp+0xffff29f4>
    1050:	800d883a 	mov	r6,r16
    1054:	980f883a 	mov	r7,r19
    1058:	3009883a 	mov	r4,r6
    105c:	380b883a 	mov	r5,r7
    1060:	00040a00 	call	40a0 <__subdf3>
    1064:	100d883a 	mov	r6,r2
    1068:	180f883a 	mov	r7,r3
    106c:	1009883a 	mov	r4,r2
    1070:	180b883a 	mov	r5,r3
    1074:	0002e480 	call	2e48 <__divdf3>
    1078:	003f8506 	br	e90 <_gp+0xffff2a70>
    107c:	00800434 	movhi	r2,16
    1080:	10bfffc4 	addi	r2,r2,-1
    1084:	1442d616 	blt	r2,r17,1be0 <__ieee754_pow+0xe40>
    1088:	b809883a 	mov	r4,r23
    108c:	000d883a 	mov	r6,zero
    1090:	01d0d034 	movhi	r7,17216
    1094:	180b883a 	mov	r5,r3
    1098:	dac00b15 	stw	r11,44(sp)
    109c:	00039880 	call	3988 <__muldf3>
    10a0:	dac00b17 	ldw	r11,44(sp)
    10a4:	102f883a 	mov	r23,r2
    10a8:	1823883a 	mov	r17,r3
    10ac:	033ff2c4 	movi	r12,-53
    10b0:	8807d53a 	srai	r3,r17,20
    10b4:	00800434 	movhi	r2,16
    10b8:	10bfffc4 	addi	r2,r2,-1
    10bc:	18ff0044 	addi	r3,r3,-1023
    10c0:	1b19883a 	add	r12,r3,r12
    10c4:	00c00134 	movhi	r3,4
    10c8:	8884703a 	and	r2,r17,r2
    10cc:	18e62384 	addi	r3,r3,-26482
    10d0:	150ffc34 	orhi	r20,r2,16368
    10d4:	1880060e 	bge	r3,r2,10f0 <__ieee754_pow+0x350>
    10d8:	00c00334 	movhi	r3,12
    10dc:	18ed9e44 	addi	r3,r3,-18823
    10e0:	18833f0e 	bge	r3,r2,1de0 <__ieee754_pow+0x1040>
    10e4:	00bffc34 	movhi	r2,65520
    10e8:	63000044 	addi	r12,r12,1
    10ec:	a0a9883a 	add	r20,r20,r2
    10f0:	0027883a 	mov	r19,zero
    10f4:	d8000215 	stw	zero,8(sp)
    10f8:	0013883a 	mov	r9,zero
    10fc:	0011883a 	mov	r8,zero
    1100:	0015883a 	mov	r10,zero
    1104:	048ffc34 	movhi	r18,16368
    1108:	900f883a 	mov	r7,r18
    110c:	b809883a 	mov	r4,r23
    1110:	a00b883a 	mov	r5,r20
    1114:	000d883a 	mov	r6,zero
    1118:	da000a15 	stw	r8,40(sp)
    111c:	da400815 	stw	r9,32(sp)
    1120:	dac00b15 	stw	r11,44(sp)
    1124:	db000915 	stw	r12,36(sp)
    1128:	da800515 	stw	r10,20(sp)
    112c:	00040a00 	call	40a0 <__subdf3>
    1130:	b809883a 	mov	r4,r23
    1134:	a00b883a 	mov	r5,r20
    1138:	900f883a 	mov	r7,r18
    113c:	000d883a 	mov	r6,zero
    1140:	d8800015 	stw	r2,0(sp)
    1144:	d8c00115 	stw	r3,4(sp)
    1148:	000259c0 	call	259c <__adddf3>
    114c:	100d883a 	mov	r6,r2
    1150:	180f883a 	mov	r7,r3
    1154:	0009883a 	mov	r4,zero
    1158:	014ffc34 	movhi	r5,16368
    115c:	0002e480 	call	2e48 <__divdf3>
    1160:	d9000017 	ldw	r4,0(sp)
    1164:	d9400117 	ldw	r5,4(sp)
    1168:	100d883a 	mov	r6,r2
    116c:	180f883a 	mov	r7,r3
    1170:	d8c00715 	stw	r3,28(sp)
    1174:	d8800615 	stw	r2,24(sp)
    1178:	00039880 	call	3988 <__muldf3>
    117c:	1023883a 	mov	r17,r2
    1180:	a005d07a 	srai	r2,r20,1
    1184:	da800517 	ldw	r10,20(sp)
    1188:	1821883a 	mov	r16,r3
    118c:	10c80034 	orhi	r3,r2,8192
    1190:	00800234 	movhi	r2,8
    1194:	1885883a 	add	r2,r3,r2
    1198:	1295883a 	add	r10,r2,r10
    119c:	500f883a 	mov	r7,r10
    11a0:	800b883a 	mov	r5,r16
    11a4:	000d883a 	mov	r6,zero
    11a8:	0009883a 	mov	r4,zero
    11ac:	da800515 	stw	r10,20(sp)
    11b0:	00039880 	call	3988 <__muldf3>
    11b4:	d9000017 	ldw	r4,0(sp)
    11b8:	d9400117 	ldw	r5,4(sp)
    11bc:	100d883a 	mov	r6,r2
    11c0:	180f883a 	mov	r7,r3
    11c4:	00040a00 	call	40a0 <__subdf3>
    11c8:	da800517 	ldw	r10,20(sp)
    11cc:	900f883a 	mov	r7,r18
    11d0:	000d883a 	mov	r6,zero
    11d4:	500b883a 	mov	r5,r10
    11d8:	0009883a 	mov	r4,zero
    11dc:	d8800015 	stw	r2,0(sp)
    11e0:	d8c00515 	stw	r3,20(sp)
    11e4:	00040a00 	call	40a0 <__subdf3>
    11e8:	b809883a 	mov	r4,r23
    11ec:	a00b883a 	mov	r5,r20
    11f0:	100d883a 	mov	r6,r2
    11f4:	180f883a 	mov	r7,r3
    11f8:	00040a00 	call	40a0 <__subdf3>
    11fc:	800f883a 	mov	r7,r16
    1200:	000d883a 	mov	r6,zero
    1204:	1009883a 	mov	r4,r2
    1208:	180b883a 	mov	r5,r3
    120c:	00039880 	call	3988 <__muldf3>
    1210:	db400517 	ldw	r13,20(sp)
    1214:	d9000017 	ldw	r4,0(sp)
    1218:	100d883a 	mov	r6,r2
    121c:	680b883a 	mov	r5,r13
    1220:	180f883a 	mov	r7,r3
    1224:	00040a00 	call	40a0 <__subdf3>
    1228:	dbc00617 	ldw	r15,24(sp)
    122c:	db800717 	ldw	r14,28(sp)
    1230:	1009883a 	mov	r4,r2
    1234:	780d883a 	mov	r6,r15
    1238:	700f883a 	mov	r7,r14
    123c:	180b883a 	mov	r5,r3
    1240:	00039880 	call	3988 <__muldf3>
    1244:	880d883a 	mov	r6,r17
    1248:	800f883a 	mov	r7,r16
    124c:	8809883a 	mov	r4,r17
    1250:	800b883a 	mov	r5,r16
    1254:	d8800015 	stw	r2,0(sp)
    1258:	d8c00115 	stw	r3,4(sp)
    125c:	00039880 	call	3988 <__muldf3>
    1260:	01929174 	movhi	r6,19013
    1264:	01cff2b4 	movhi	r7,16330
    1268:	3193bbc4 	addi	r6,r6,20207
    126c:	39df8a04 	addi	r7,r7,32296
    1270:	1009883a 	mov	r4,r2
    1274:	180b883a 	mov	r5,r3
    1278:	102f883a 	mov	r23,r2
    127c:	1829883a 	mov	r20,r3
    1280:	00039880 	call	3988 <__muldf3>
    1284:	01a4f2b4 	movhi	r6,37834
    1288:	01cff3b4 	movhi	r7,16334
    128c:	31b6d944 	addi	r6,r6,-9371
    1290:	39e19284 	addi	r7,r7,-31158
    1294:	1009883a 	mov	r4,r2
    1298:	180b883a 	mov	r5,r3
    129c:	000259c0 	call	259c <__adddf3>
    12a0:	b80d883a 	mov	r6,r23
    12a4:	a00f883a 	mov	r7,r20
    12a8:	1009883a 	mov	r4,r2
    12ac:	180b883a 	mov	r5,r3
    12b0:	00039880 	call	3988 <__muldf3>
    12b4:	01aa4774 	movhi	r6,43293
    12b8:	01cff474 	movhi	r7,16337
    12bc:	31904044 	addi	r6,r6,16641
    12c0:	39dd1804 	addi	r7,r7,29792
    12c4:	1009883a 	mov	r4,r2
    12c8:	180b883a 	mov	r5,r3
    12cc:	000259c0 	call	259c <__adddf3>
    12d0:	b80d883a 	mov	r6,r23
    12d4:	a00f883a 	mov	r7,r20
    12d8:	1009883a 	mov	r4,r2
    12dc:	180b883a 	mov	r5,r3
    12e0:	00039880 	call	3988 <__muldf3>
    12e4:	019463f4 	movhi	r6,20879
    12e8:	01cff574 	movhi	r7,16341
    12ec:	31899344 	addi	r6,r6,9805
    12f0:	39d55544 	addi	r7,r7,21845
    12f4:	1009883a 	mov	r4,r2
    12f8:	180b883a 	mov	r5,r3
    12fc:	000259c0 	call	259c <__adddf3>
    1300:	b80d883a 	mov	r6,r23
    1304:	a00f883a 	mov	r7,r20
    1308:	1009883a 	mov	r4,r2
    130c:	180b883a 	mov	r5,r3
    1310:	00039880 	call	3988 <__muldf3>
    1314:	01b6dc34 	movhi	r6,56176
    1318:	01cff6f4 	movhi	r7,16347
    131c:	31aaffc4 	addi	r6,r6,-21505
    1320:	39db6d84 	addi	r7,r7,28086
    1324:	1009883a 	mov	r4,r2
    1328:	180b883a 	mov	r5,r3
    132c:	000259c0 	call	259c <__adddf3>
    1330:	b80d883a 	mov	r6,r23
    1334:	a00f883a 	mov	r7,r20
    1338:	1009883a 	mov	r4,r2
    133c:	180b883a 	mov	r5,r3
    1340:	00039880 	call	3988 <__muldf3>
    1344:	018cccf4 	movhi	r6,13107
    1348:	01cff8f4 	movhi	r7,16355
    134c:	318cc0c4 	addi	r6,r6,13059
    1350:	39ccccc4 	addi	r7,r7,13107
    1354:	1009883a 	mov	r4,r2
    1358:	180b883a 	mov	r5,r3
    135c:	000259c0 	call	259c <__adddf3>
    1360:	b80d883a 	mov	r6,r23
    1364:	a00f883a 	mov	r7,r20
    1368:	b809883a 	mov	r4,r23
    136c:	a00b883a 	mov	r5,r20
    1370:	1825883a 	mov	r18,r3
    1374:	d8800515 	stw	r2,20(sp)
    1378:	00039880 	call	3988 <__muldf3>
    137c:	db400517 	ldw	r13,20(sp)
    1380:	900b883a 	mov	r5,r18
    1384:	100d883a 	mov	r6,r2
    1388:	6809883a 	mov	r4,r13
    138c:	180f883a 	mov	r7,r3
    1390:	00039880 	call	3988 <__muldf3>
    1394:	800f883a 	mov	r7,r16
    1398:	8809883a 	mov	r4,r17
    139c:	800b883a 	mov	r5,r16
    13a0:	000d883a 	mov	r6,zero
    13a4:	102f883a 	mov	r23,r2
    13a8:	1829883a 	mov	r20,r3
    13ac:	000259c0 	call	259c <__adddf3>
    13b0:	d9800017 	ldw	r6,0(sp)
    13b4:	d9c00117 	ldw	r7,4(sp)
    13b8:	1009883a 	mov	r4,r2
    13bc:	180b883a 	mov	r5,r3
    13c0:	00039880 	call	3988 <__muldf3>
    13c4:	b80d883a 	mov	r6,r23
    13c8:	a00f883a 	mov	r7,r20
    13cc:	1009883a 	mov	r4,r2
    13d0:	180b883a 	mov	r5,r3
    13d4:	000259c0 	call	259c <__adddf3>
    13d8:	800f883a 	mov	r7,r16
    13dc:	800b883a 	mov	r5,r16
    13e0:	000d883a 	mov	r6,zero
    13e4:	0009883a 	mov	r4,zero
    13e8:	1025883a 	mov	r18,r2
    13ec:	182f883a 	mov	r23,r3
    13f0:	00039880 	call	3988 <__muldf3>
    13f4:	000d883a 	mov	r6,zero
    13f8:	01d00234 	movhi	r7,16392
    13fc:	1009883a 	mov	r4,r2
    1400:	180b883a 	mov	r5,r3
    1404:	d8c00715 	stw	r3,28(sp)
    1408:	d8800615 	stw	r2,24(sp)
    140c:	000259c0 	call	259c <__adddf3>
    1410:	900d883a 	mov	r6,r18
    1414:	b80f883a 	mov	r7,r23
    1418:	1009883a 	mov	r4,r2
    141c:	180b883a 	mov	r5,r3
    1420:	000259c0 	call	259c <__adddf3>
    1424:	800b883a 	mov	r5,r16
    1428:	000d883a 	mov	r6,zero
    142c:	180f883a 	mov	r7,r3
    1430:	0009883a 	mov	r4,zero
    1434:	1829883a 	mov	r20,r3
    1438:	00039880 	call	3988 <__muldf3>
    143c:	a00b883a 	mov	r5,r20
    1440:	000d883a 	mov	r6,zero
    1444:	01d00234 	movhi	r7,16392
    1448:	0009883a 	mov	r4,zero
    144c:	d8800315 	stw	r2,12(sp)
    1450:	d8c00415 	stw	r3,16(sp)
    1454:	00040a00 	call	40a0 <__subdf3>
    1458:	dbc00617 	ldw	r15,24(sp)
    145c:	db800717 	ldw	r14,28(sp)
    1460:	1009883a 	mov	r4,r2
    1464:	780d883a 	mov	r6,r15
    1468:	700f883a 	mov	r7,r14
    146c:	180b883a 	mov	r5,r3
    1470:	00040a00 	call	40a0 <__subdf3>
    1474:	9009883a 	mov	r4,r18
    1478:	b80b883a 	mov	r5,r23
    147c:	100d883a 	mov	r6,r2
    1480:	180f883a 	mov	r7,r3
    1484:	00040a00 	call	40a0 <__subdf3>
    1488:	880d883a 	mov	r6,r17
    148c:	800f883a 	mov	r7,r16
    1490:	1009883a 	mov	r4,r2
    1494:	180b883a 	mov	r5,r3
    1498:	00039880 	call	3988 <__muldf3>
    149c:	d9000017 	ldw	r4,0(sp)
    14a0:	d9400117 	ldw	r5,4(sp)
    14a4:	a00f883a 	mov	r7,r20
    14a8:	000d883a 	mov	r6,zero
    14ac:	1023883a 	mov	r17,r2
    14b0:	1821883a 	mov	r16,r3
    14b4:	00039880 	call	3988 <__muldf3>
    14b8:	8809883a 	mov	r4,r17
    14bc:	800b883a 	mov	r5,r16
    14c0:	100d883a 	mov	r6,r2
    14c4:	180f883a 	mov	r7,r3
    14c8:	000259c0 	call	259c <__adddf3>
    14cc:	d9000317 	ldw	r4,12(sp)
    14d0:	d9400417 	ldw	r5,16(sp)
    14d4:	100d883a 	mov	r6,r2
    14d8:	180f883a 	mov	r7,r3
    14dc:	102f883a 	mov	r23,r2
    14e0:	1823883a 	mov	r17,r3
    14e4:	000259c0 	call	259c <__adddf3>
    14e8:	01cffbf4 	movhi	r7,16367
    14ec:	39f1c244 	addi	r7,r7,-14583
    14f0:	0009883a 	mov	r4,zero
    14f4:	180b883a 	mov	r5,r3
    14f8:	01b80034 	movhi	r6,57344
    14fc:	1821883a 	mov	r16,r3
    1500:	00039880 	call	3988 <__muldf3>
    1504:	d9800317 	ldw	r6,12(sp)
    1508:	d9c00417 	ldw	r7,16(sp)
    150c:	800b883a 	mov	r5,r16
    1510:	0009883a 	mov	r4,zero
    1514:	1825883a 	mov	r18,r3
    1518:	d8800015 	stw	r2,0(sp)
    151c:	00040a00 	call	40a0 <__subdf3>
    1520:	b809883a 	mov	r4,r23
    1524:	880b883a 	mov	r5,r17
    1528:	100d883a 	mov	r6,r2
    152c:	180f883a 	mov	r7,r3
    1530:	00040a00 	call	40a0 <__subdf3>
    1534:	01b70eb4 	movhi	r6,56378
    1538:	01cffbf4 	movhi	r7,16367
    153c:	3180ff44 	addi	r6,r6,1021
    1540:	39f1c244 	addi	r7,r7,-14583
    1544:	1009883a 	mov	r4,r2
    1548:	180b883a 	mov	r5,r3
    154c:	00039880 	call	3988 <__muldf3>
    1550:	018516f4 	movhi	r6,5211
    1554:	01ef8fb4 	movhi	r7,48702
    1558:	800b883a 	mov	r5,r16
    155c:	31807d44 	addi	r6,r6,501
    1560:	39cbf804 	addi	r7,r7,12256
    1564:	0009883a 	mov	r4,zero
    1568:	1029883a 	mov	r20,r2
    156c:	1823883a 	mov	r17,r3
    1570:	00039880 	call	3988 <__muldf3>
    1574:	a009883a 	mov	r4,r20
    1578:	880b883a 	mov	r5,r17
    157c:	100d883a 	mov	r6,r2
    1580:	180f883a 	mov	r7,r3
    1584:	000259c0 	call	259c <__adddf3>
    1588:	da400817 	ldw	r9,32(sp)
    158c:	da000a17 	ldw	r8,40(sp)
    1590:	180b883a 	mov	r5,r3
    1594:	480d883a 	mov	r6,r9
    1598:	400f883a 	mov	r7,r8
    159c:	1009883a 	mov	r4,r2
    15a0:	000259c0 	call	259c <__adddf3>
    15a4:	db000917 	ldw	r12,36(sp)
    15a8:	1029883a 	mov	r20,r2
    15ac:	1823883a 	mov	r17,r3
    15b0:	6009883a 	mov	r4,r12
    15b4:	0004a1c0 	call	4a1c <__floatsidf>
    15b8:	d9000017 	ldw	r4,0(sp)
    15bc:	a00d883a 	mov	r6,r20
    15c0:	880f883a 	mov	r7,r17
    15c4:	900b883a 	mov	r5,r18
    15c8:	182f883a 	mov	r23,r3
    15cc:	d8800115 	stw	r2,4(sp)
    15d0:	000259c0 	call	259c <__adddf3>
    15d4:	d9c00217 	ldw	r7,8(sp)
    15d8:	980d883a 	mov	r6,r19
    15dc:	1009883a 	mov	r4,r2
    15e0:	180b883a 	mov	r5,r3
    15e4:	000259c0 	call	259c <__adddf3>
    15e8:	d9800117 	ldw	r6,4(sp)
    15ec:	b80f883a 	mov	r7,r23
    15f0:	1009883a 	mov	r4,r2
    15f4:	180b883a 	mov	r5,r3
    15f8:	000259c0 	call	259c <__adddf3>
    15fc:	d9800117 	ldw	r6,4(sp)
    1600:	b80f883a 	mov	r7,r23
    1604:	0009883a 	mov	r4,zero
    1608:	180b883a 	mov	r5,r3
    160c:	1821883a 	mov	r16,r3
    1610:	00040a00 	call	40a0 <__subdf3>
    1614:	d9c00217 	ldw	r7,8(sp)
    1618:	980d883a 	mov	r6,r19
    161c:	1009883a 	mov	r4,r2
    1620:	180b883a 	mov	r5,r3
    1624:	00040a00 	call	40a0 <__subdf3>
    1628:	d9800017 	ldw	r6,0(sp)
    162c:	900f883a 	mov	r7,r18
    1630:	1009883a 	mov	r4,r2
    1634:	180b883a 	mov	r5,r3
    1638:	00040a00 	call	40a0 <__subdf3>
    163c:	880b883a 	mov	r5,r17
    1640:	100d883a 	mov	r6,r2
    1644:	180f883a 	mov	r7,r3
    1648:	a009883a 	mov	r4,r20
    164c:	00040a00 	call	40a0 <__subdf3>
    1650:	dac00b17 	ldw	r11,44(sp)
    1654:	aabfffc4 	addi	r10,r21,-1
    1658:	1025883a 	mov	r18,r2
    165c:	52d6b03a 	or	r11,r10,r11
    1660:	1823883a 	mov	r17,r3
    1664:	58015826 	beq	r11,zero,1bc8 <__ieee754_pow+0xe28>
    1668:	04cffc34 	movhi	r19,16368
    166c:	b009883a 	mov	r4,r22
    1670:	000d883a 	mov	r6,zero
    1674:	e00f883a 	mov	r7,fp
    1678:	e00b883a 	mov	r5,fp
    167c:	00040a00 	call	40a0 <__subdf3>
    1680:	800f883a 	mov	r7,r16
    1684:	000d883a 	mov	r6,zero
    1688:	1009883a 	mov	r4,r2
    168c:	180b883a 	mov	r5,r3
    1690:	00039880 	call	3988 <__muldf3>
    1694:	b00d883a 	mov	r6,r22
    1698:	9009883a 	mov	r4,r18
    169c:	880b883a 	mov	r5,r17
    16a0:	e00f883a 	mov	r7,fp
    16a4:	1829883a 	mov	r20,r3
    16a8:	102b883a 	mov	r21,r2
    16ac:	00039880 	call	3988 <__muldf3>
    16b0:	a00b883a 	mov	r5,r20
    16b4:	100d883a 	mov	r6,r2
    16b8:	180f883a 	mov	r7,r3
    16bc:	a809883a 	mov	r4,r21
    16c0:	000259c0 	call	259c <__adddf3>
    16c4:	800b883a 	mov	r5,r16
    16c8:	000d883a 	mov	r6,zero
    16cc:	e00f883a 	mov	r7,fp
    16d0:	0009883a 	mov	r4,zero
    16d4:	102d883a 	mov	r22,r2
    16d8:	1829883a 	mov	r20,r3
    16dc:	00039880 	call	3988 <__muldf3>
    16e0:	100d883a 	mov	r6,r2
    16e4:	180f883a 	mov	r7,r3
    16e8:	b009883a 	mov	r4,r22
    16ec:	a00b883a 	mov	r5,r20
    16f0:	1025883a 	mov	r18,r2
    16f4:	1823883a 	mov	r17,r3
    16f8:	000259c0 	call	259c <__adddf3>
    16fc:	102f883a 	mov	r23,r2
    1700:	00902434 	movhi	r2,16528
    1704:	10bfffc4 	addi	r2,r2,-1
    1708:	1821883a 	mov	r16,r3
    170c:	9013883a 	mov	r9,r18
    1710:	8811883a 	mov	r8,r17
    1714:	10c1070e 	bge	r2,r3,1b34 <__ieee754_pow+0xd94>
    1718:	00afdc34 	movhi	r2,49008
    171c:	1885883a 	add	r2,r3,r2
    1720:	15c4b03a 	or	r2,r2,r23
    1724:	1001901e 	bne	r2,zero,1d68 <__ieee754_pow+0xfc8>
    1728:	01994b34 	movhi	r6,25900
    172c:	01cf25f4 	movhi	r7,15511
    1730:	31a0bf84 	addi	r6,r6,-32002
    1734:	39c551c4 	addi	r7,r7,5447
    1738:	b009883a 	mov	r4,r22
    173c:	a00b883a 	mov	r5,r20
    1740:	000259c0 	call	259c <__adddf3>
    1744:	900d883a 	mov	r6,r18
    1748:	880f883a 	mov	r7,r17
    174c:	b809883a 	mov	r4,r23
    1750:	800b883a 	mov	r5,r16
    1754:	1039883a 	mov	fp,r2
    1758:	182b883a 	mov	r21,r3
    175c:	00040a00 	call	40a0 <__subdf3>
    1760:	100d883a 	mov	r6,r2
    1764:	180f883a 	mov	r7,r3
    1768:	e009883a 	mov	r4,fp
    176c:	a80b883a 	mov	r5,r21
    1770:	00037b80 	call	37b8 <__gedf2>
    1774:	00817c16 	blt	zero,r2,1d68 <__ieee754_pow+0xfc8>
    1778:	802b883a 	mov	r21,r16
    177c:	a805d53a 	srai	r2,r21,20
    1780:	00c00434 	movhi	r3,16
    1784:	01000434 	movhi	r4,16
    1788:	10bf0084 	addi	r2,r2,-1022
    178c:	1885d83a 	sra	r2,r3,r2
    1790:	213fffc4 	addi	r4,r4,-1
    1794:	1405883a 	add	r2,r2,r16
    1798:	1006907a 	slli	r3,r2,1
    179c:	112a703a 	and	r21,r2,r4
    17a0:	ad400434 	orhi	r21,r21,16
    17a4:	1806d57a 	srli	r3,r3,21
    17a8:	18ff0044 	addi	r3,r3,-1023
    17ac:	20cfd83a 	sra	r7,r4,r3
    17b0:	01000504 	movi	r4,20
    17b4:	20c7c83a 	sub	r3,r4,r3
    17b8:	a8c7d83a 	sra	r3,r21,r3
    17bc:	01ce303a 	nor	r7,zero,r7
    17c0:	388e703a 	and	r7,r7,r2
    17c4:	d8c00015 	stw	r3,0(sp)
    17c8:	80019016 	blt	r16,zero,1e0c <__ieee754_pow+0x106c>
    17cc:	000d883a 	mov	r6,zero
    17d0:	9009883a 	mov	r4,r18
    17d4:	880b883a 	mov	r5,r17
    17d8:	00040a00 	call	40a0 <__subdf3>
    17dc:	100d883a 	mov	r6,r2
    17e0:	180f883a 	mov	r7,r3
    17e4:	b009883a 	mov	r4,r22
    17e8:	a00b883a 	mov	r5,r20
    17ec:	d8c00a15 	stw	r3,40(sp)
    17f0:	d8800815 	stw	r2,32(sp)
    17f4:	000259c0 	call	259c <__adddf3>
    17f8:	d8800017 	ldw	r2,0(sp)
    17fc:	da000a17 	ldw	r8,40(sp)
    1800:	da400817 	ldw	r9,32(sp)
    1804:	1004953a 	slli	r2,r2,20
    1808:	1821883a 	mov	r16,r3
    180c:	d8800215 	stw	r2,8(sp)
    1810:	01cff9b4 	movhi	r7,16358
    1814:	800b883a 	mov	r5,r16
    1818:	39cb90c4 	addi	r7,r7,11843
    181c:	0009883a 	mov	r4,zero
    1820:	000d883a 	mov	r6,zero
    1824:	da000a15 	stw	r8,40(sp)
    1828:	da400815 	stw	r9,32(sp)
    182c:	00039880 	call	3988 <__muldf3>
    1830:	da400817 	ldw	r9,32(sp)
    1834:	da000a17 	ldw	r8,40(sp)
    1838:	800b883a 	mov	r5,r16
    183c:	480d883a 	mov	r6,r9
    1840:	400f883a 	mov	r7,r8
    1844:	0009883a 	mov	r4,zero
    1848:	1039883a 	mov	fp,r2
    184c:	182f883a 	mov	r23,r3
    1850:	00040a00 	call	40a0 <__subdf3>
    1854:	b009883a 	mov	r4,r22
    1858:	a00b883a 	mov	r5,r20
    185c:	100d883a 	mov	r6,r2
    1860:	180f883a 	mov	r7,r3
    1864:	00040a00 	call	40a0 <__subdf3>
    1868:	01bfbeb4 	movhi	r6,65274
    186c:	01cff9b4 	movhi	r7,16358
    1870:	318e7bc4 	addi	r6,r6,14831
    1874:	39cb9084 	addi	r7,r7,11842
    1878:	1009883a 	mov	r4,r2
    187c:	180b883a 	mov	r5,r3
    1880:	00039880 	call	3988 <__muldf3>
    1884:	01832a34 	movhi	r6,3240
    1888:	01ef8834 	movhi	r7,48672
    188c:	800b883a 	mov	r5,r16
    1890:	319b0e44 	addi	r6,r6,27705
    1894:	39d71844 	addi	r7,r7,23649
    1898:	0009883a 	mov	r4,zero
    189c:	1029883a 	mov	r20,r2
    18a0:	1823883a 	mov	r17,r3
    18a4:	00039880 	call	3988 <__muldf3>
    18a8:	a009883a 	mov	r4,r20
    18ac:	880b883a 	mov	r5,r17
    18b0:	100d883a 	mov	r6,r2
    18b4:	180f883a 	mov	r7,r3
    18b8:	000259c0 	call	259c <__adddf3>
    18bc:	e009883a 	mov	r4,fp
    18c0:	b80b883a 	mov	r5,r23
    18c4:	100d883a 	mov	r6,r2
    18c8:	180f883a 	mov	r7,r3
    18cc:	102d883a 	mov	r22,r2
    18d0:	1829883a 	mov	r20,r3
    18d4:	000259c0 	call	259c <__adddf3>
    18d8:	e00d883a 	mov	r6,fp
    18dc:	b80f883a 	mov	r7,r23
    18e0:	1009883a 	mov	r4,r2
    18e4:	180b883a 	mov	r5,r3
    18e8:	1023883a 	mov	r17,r2
    18ec:	1821883a 	mov	r16,r3
    18f0:	00040a00 	call	40a0 <__subdf3>
    18f4:	b009883a 	mov	r4,r22
    18f8:	a00b883a 	mov	r5,r20
    18fc:	100d883a 	mov	r6,r2
    1900:	180f883a 	mov	r7,r3
    1904:	00040a00 	call	40a0 <__subdf3>
    1908:	880d883a 	mov	r6,r17
    190c:	800f883a 	mov	r7,r16
    1910:	8809883a 	mov	r4,r17
    1914:	800b883a 	mov	r5,r16
    1918:	1039883a 	mov	fp,r2
    191c:	182f883a 	mov	r23,r3
    1920:	00039880 	call	3988 <__muldf3>
    1924:	019caff4 	movhi	r6,29375
    1928:	01cf99b4 	movhi	r7,15974
    192c:	31a93404 	addi	r6,r6,-23344
    1930:	39cdda44 	addi	r7,r7,14185
    1934:	1009883a 	mov	r4,r2
    1938:	180b883a 	mov	r5,r3
    193c:	102d883a 	mov	r22,r2
    1940:	1829883a 	mov	r20,r3
    1944:	00039880 	call	3988 <__muldf3>
    1948:	01b174b4 	movhi	r6,50642
    194c:	01cfaf34 	movhi	r7,16060
    1950:	319afc44 	addi	r6,r6,27633
    1954:	39ef5044 	addi	r7,r7,-17087
    1958:	1009883a 	mov	r4,r2
    195c:	180b883a 	mov	r5,r3
    1960:	00040a00 	call	40a0 <__subdf3>
    1964:	b00d883a 	mov	r6,r22
    1968:	a00f883a 	mov	r7,r20
    196c:	1009883a 	mov	r4,r2
    1970:	180b883a 	mov	r5,r3
    1974:	00039880 	call	3988 <__muldf3>
    1978:	01abc9b4 	movhi	r6,44838
    197c:	01cfc474 	movhi	r7,16145
    1980:	31b78b04 	addi	r6,r6,-8660
    1984:	39d59a84 	addi	r7,r7,22122
    1988:	1009883a 	mov	r4,r2
    198c:	180b883a 	mov	r5,r3
    1990:	000259c0 	call	259c <__adddf3>
    1994:	b00d883a 	mov	r6,r22
    1998:	a00f883a 	mov	r7,r20
    199c:	1009883a 	mov	r4,r2
    19a0:	180b883a 	mov	r5,r3
    19a4:	00039880 	call	3988 <__muldf3>
    19a8:	0185aff4 	movhi	r6,5823
    19ac:	01cfd9f4 	movhi	r7,16231
    19b0:	31af64c4 	addi	r6,r6,-17005
    19b4:	39f05b04 	addi	r7,r7,-16020
    19b8:	1009883a 	mov	r4,r2
    19bc:	180b883a 	mov	r5,r3
    19c0:	00040a00 	call	40a0 <__subdf3>
    19c4:	b00d883a 	mov	r6,r22
    19c8:	a00f883a 	mov	r7,r20
    19cc:	1009883a 	mov	r4,r2
    19d0:	180b883a 	mov	r5,r3
    19d4:	00039880 	call	3988 <__muldf3>
    19d8:	01955574 	movhi	r6,21845
    19dc:	01cff174 	movhi	r7,16325
    19e0:	31954f84 	addi	r6,r6,21822
    19e4:	39d55544 	addi	r7,r7,21845
    19e8:	1009883a 	mov	r4,r2
    19ec:	180b883a 	mov	r5,r3
    19f0:	000259c0 	call	259c <__adddf3>
    19f4:	b00d883a 	mov	r6,r22
    19f8:	a00f883a 	mov	r7,r20
    19fc:	1009883a 	mov	r4,r2
    1a00:	180b883a 	mov	r5,r3
    1a04:	00039880 	call	3988 <__muldf3>
    1a08:	100d883a 	mov	r6,r2
    1a0c:	180f883a 	mov	r7,r3
    1a10:	8809883a 	mov	r4,r17
    1a14:	800b883a 	mov	r5,r16
    1a18:	00040a00 	call	40a0 <__subdf3>
    1a1c:	100d883a 	mov	r6,r2
    1a20:	180f883a 	mov	r7,r3
    1a24:	8809883a 	mov	r4,r17
    1a28:	800b883a 	mov	r5,r16
    1a2c:	102d883a 	mov	r22,r2
    1a30:	1829883a 	mov	r20,r3
    1a34:	00039880 	call	3988 <__muldf3>
    1a38:	b009883a 	mov	r4,r22
    1a3c:	a00b883a 	mov	r5,r20
    1a40:	000d883a 	mov	r6,zero
    1a44:	01d00034 	movhi	r7,16384
    1a48:	1025883a 	mov	r18,r2
    1a4c:	182b883a 	mov	r21,r3
    1a50:	00040a00 	call	40a0 <__subdf3>
    1a54:	100d883a 	mov	r6,r2
    1a58:	180f883a 	mov	r7,r3
    1a5c:	9009883a 	mov	r4,r18
    1a60:	a80b883a 	mov	r5,r21
    1a64:	0002e480 	call	2e48 <__divdf3>
    1a68:	e00d883a 	mov	r6,fp
    1a6c:	b80f883a 	mov	r7,r23
    1a70:	8809883a 	mov	r4,r17
    1a74:	800b883a 	mov	r5,r16
    1a78:	102d883a 	mov	r22,r2
    1a7c:	1829883a 	mov	r20,r3
    1a80:	00039880 	call	3988 <__muldf3>
    1a84:	e00d883a 	mov	r6,fp
    1a88:	b80f883a 	mov	r7,r23
    1a8c:	1009883a 	mov	r4,r2
    1a90:	180b883a 	mov	r5,r3
    1a94:	000259c0 	call	259c <__adddf3>
    1a98:	100d883a 	mov	r6,r2
    1a9c:	180f883a 	mov	r7,r3
    1aa0:	b009883a 	mov	r4,r22
    1aa4:	a00b883a 	mov	r5,r20
    1aa8:	00040a00 	call	40a0 <__subdf3>
    1aac:	880d883a 	mov	r6,r17
    1ab0:	800f883a 	mov	r7,r16
    1ab4:	1009883a 	mov	r4,r2
    1ab8:	180b883a 	mov	r5,r3
    1abc:	00040a00 	call	40a0 <__subdf3>
    1ac0:	0009883a 	mov	r4,zero
    1ac4:	014ffc34 	movhi	r5,16368
    1ac8:	100d883a 	mov	r6,r2
    1acc:	180f883a 	mov	r7,r3
    1ad0:	00040a00 	call	40a0 <__subdf3>
    1ad4:	d9000217 	ldw	r4,8(sp)
    1ad8:	190b883a 	add	r5,r3,r4
    1adc:	2809d53a 	srai	r4,r5,20
    1ae0:	0100cd0e 	bge	zero,r4,1e18 <__ieee754_pow+0x1078>
    1ae4:	1009883a 	mov	r4,r2
    1ae8:	000d883a 	mov	r6,zero
    1aec:	980f883a 	mov	r7,r19
    1af0:	00039880 	call	3988 <__muldf3>
    1af4:	003ce606 	br	e90 <_gp+0xffff2a70>
    1af8:	00b00434 	movhi	r2,49168
    1afc:	8885883a 	add	r2,r17,r2
    1b00:	1544b03a 	or	r2,r2,r21
    1b04:	1000b326 	beq	r2,zero,1dd4 <__ieee754_pow+0x1034>
    1b08:	00800044 	movi	r2,1
    1b0c:	a8bd181e 	bne	r21,r2,f70 <_gp+0xffff2b50>
    1b10:	18e0003c 	xorhi	r3,r3,32768
    1b14:	b805883a 	mov	r2,r23
    1b18:	003cdd06 	br	e90 <_gp+0xffff2a70>
    1b1c:	800d883a 	mov	r6,r16
    1b20:	980f883a 	mov	r7,r19
    1b24:	8009883a 	mov	r4,r16
    1b28:	980b883a 	mov	r5,r19
    1b2c:	00039880 	call	3988 <__muldf3>
    1b30:	003cd706 	br	e90 <_gp+0xffff2a70>
    1b34:	05600034 	movhi	r21,32768
    1b38:	ad7fffc4 	addi	r21,r21,-1
    1b3c:	00902474 	movhi	r2,16529
    1b40:	1d6a703a 	and	r21,r3,r21
    1b44:	10b2ffc4 	addi	r2,r2,-13313
    1b48:	15409d0e 	bge	r2,r21,1dc0 <__ieee754_pow+0x1020>
    1b4c:	008fdbf4 	movhi	r2,16239
    1b50:	108d0004 	addi	r2,r2,13312
    1b54:	1885883a 	add	r2,r3,r2
    1b58:	15c4b03a 	or	r2,r2,r23
    1b5c:	10000b1e 	bne	r2,zero,1b8c <__ieee754_pow+0xdec>
    1b60:	900d883a 	mov	r6,r18
    1b64:	880f883a 	mov	r7,r17
    1b68:	b809883a 	mov	r4,r23
    1b6c:	180b883a 	mov	r5,r3
    1b70:	00040a00 	call	40a0 <__subdf3>
    1b74:	100d883a 	mov	r6,r2
    1b78:	180f883a 	mov	r7,r3
    1b7c:	b009883a 	mov	r4,r22
    1b80:	a00b883a 	mov	r5,r20
    1b84:	00038940 	call	3894 <__ledf2>
    1b88:	00befc16 	blt	zero,r2,177c <_gp+0xffff335c>
    1b8c:	01b0be74 	movhi	r6,49913
    1b90:	01c06974 	movhi	r7,421
    1b94:	980b883a 	mov	r5,r19
    1b98:	31bcd644 	addi	r6,r6,-3239
    1b9c:	39db87c4 	addi	r7,r7,28191
    1ba0:	0009883a 	mov	r4,zero
    1ba4:	00039880 	call	3988 <__muldf3>
    1ba8:	01b0be74 	movhi	r6,49913
    1bac:	01c06974 	movhi	r7,421
    1bb0:	31bcd644 	addi	r6,r6,-3239
    1bb4:	39db87c4 	addi	r7,r7,28191
    1bb8:	1009883a 	mov	r4,r2
    1bbc:	180b883a 	mov	r5,r3
    1bc0:	00039880 	call	3988 <__muldf3>
    1bc4:	003cb206 	br	e90 <_gp+0xffff2a70>
    1bc8:	04effc34 	movhi	r19,49136
    1bcc:	003ea706 	br	166c <_gp+0xffff324c>
    1bd0:	e03cdc0e 	bge	fp,zero,f44 <_gp+0xffff2b24>
    1bd4:	0005883a 	mov	r2,zero
    1bd8:	e0e0003c 	xorhi	r3,fp,32768
    1bdc:	003cac06 	br	e90 <_gp+0xffff2a70>
    1be0:	0019883a 	mov	r12,zero
    1be4:	003d3206 	br	10b0 <_gp+0xffff2c90>
    1be8:	008ffc34 	movhi	r2,16368
    1bec:	10bfff84 	addi	r2,r2,-2
    1bf0:	147cd30e 	bge	r2,r17,f40 <_gp+0xffff2b20>
    1bf4:	01cffc34 	movhi	r7,16368
    1bf8:	3c7cea16 	blt	r7,r17,fa4 <_gp+0xffff2b84>
    1bfc:	b809883a 	mov	r4,r23
    1c00:	000d883a 	mov	r6,zero
    1c04:	180b883a 	mov	r5,r3
    1c08:	dac00b15 	stw	r11,44(sp)
    1c0c:	00040a00 	call	40a0 <__subdf3>
    1c10:	01cffdf4 	movhi	r7,16375
    1c14:	39c551c4 	addi	r7,r7,5447
    1c18:	01980034 	movhi	r6,24576
    1c1c:	1009883a 	mov	r4,r2
    1c20:	180b883a 	mov	r5,r3
    1c24:	1023883a 	mov	r17,r2
    1c28:	1821883a 	mov	r16,r3
    1c2c:	00039880 	call	3988 <__muldf3>
    1c30:	01be17b4 	movhi	r6,63582
    1c34:	01cf9574 	movhi	r7,15957
    1c38:	8809883a 	mov	r4,r17
    1c3c:	800b883a 	mov	r5,r16
    1c40:	31b7d104 	addi	r6,r6,-8380
    1c44:	39eb82c4 	addi	r7,r7,-20981
    1c48:	1027883a 	mov	r19,r2
    1c4c:	1825883a 	mov	r18,r3
    1c50:	00039880 	call	3988 <__muldf3>
    1c54:	8809883a 	mov	r4,r17
    1c58:	800b883a 	mov	r5,r16
    1c5c:	000d883a 	mov	r6,zero
    1c60:	01cff434 	movhi	r7,16336
    1c64:	1829883a 	mov	r20,r3
    1c68:	d8800a15 	stw	r2,40(sp)
    1c6c:	00039880 	call	3988 <__muldf3>
    1c70:	01155574 	movhi	r4,21845
    1c74:	014ff574 	movhi	r5,16341
    1c78:	100d883a 	mov	r6,r2
    1c7c:	180f883a 	mov	r7,r3
    1c80:	21155544 	addi	r4,r4,21845
    1c84:	29555544 	addi	r5,r5,21845
    1c88:	00040a00 	call	40a0 <__subdf3>
    1c8c:	880d883a 	mov	r6,r17
    1c90:	800f883a 	mov	r7,r16
    1c94:	1009883a 	mov	r4,r2
    1c98:	180b883a 	mov	r5,r3
    1c9c:	00039880 	call	3988 <__muldf3>
    1ca0:	100d883a 	mov	r6,r2
    1ca4:	180f883a 	mov	r7,r3
    1ca8:	0009883a 	mov	r4,zero
    1cac:	014ff834 	movhi	r5,16352
    1cb0:	00040a00 	call	40a0 <__subdf3>
    1cb4:	880d883a 	mov	r6,r17
    1cb8:	800f883a 	mov	r7,r16
    1cbc:	8809883a 	mov	r4,r17
    1cc0:	800b883a 	mov	r5,r16
    1cc4:	102f883a 	mov	r23,r2
    1cc8:	d8c00815 	stw	r3,32(sp)
    1ccc:	00039880 	call	3988 <__muldf3>
    1cd0:	da400817 	ldw	r9,32(sp)
    1cd4:	100d883a 	mov	r6,r2
    1cd8:	180f883a 	mov	r7,r3
    1cdc:	480b883a 	mov	r5,r9
    1ce0:	b809883a 	mov	r4,r23
    1ce4:	00039880 	call	3988 <__muldf3>
    1ce8:	01994b34 	movhi	r6,25900
    1cec:	01cffdf4 	movhi	r7,16375
    1cf0:	31a0bf84 	addi	r6,r6,-32002
    1cf4:	39c551c4 	addi	r7,r7,5447
    1cf8:	1009883a 	mov	r4,r2
    1cfc:	180b883a 	mov	r5,r3
    1d00:	00039880 	call	3988 <__muldf3>
    1d04:	da000a17 	ldw	r8,40(sp)
    1d08:	a00b883a 	mov	r5,r20
    1d0c:	100d883a 	mov	r6,r2
    1d10:	4009883a 	mov	r4,r8
    1d14:	180f883a 	mov	r7,r3
    1d18:	00040a00 	call	40a0 <__subdf3>
    1d1c:	100d883a 	mov	r6,r2
    1d20:	180f883a 	mov	r7,r3
    1d24:	9809883a 	mov	r4,r19
    1d28:	900b883a 	mov	r5,r18
    1d2c:	1029883a 	mov	r20,r2
    1d30:	1823883a 	mov	r17,r3
    1d34:	000259c0 	call	259c <__adddf3>
    1d38:	1821883a 	mov	r16,r3
    1d3c:	980d883a 	mov	r6,r19
    1d40:	900f883a 	mov	r7,r18
    1d44:	0009883a 	mov	r4,zero
    1d48:	180b883a 	mov	r5,r3
    1d4c:	003e3a06 	br	1638 <_gp+0xffff3218>
    1d50:	800d883a 	mov	r6,r16
    1d54:	980f883a 	mov	r7,r19
    1d58:	0009883a 	mov	r4,zero
    1d5c:	900b883a 	mov	r5,r18
    1d60:	0002e480 	call	2e48 <__divdf3>
    1d64:	003c4a06 	br	e90 <_gp+0xffff2a70>
    1d68:	01a20034 	movhi	r6,34816
    1d6c:	01df8e34 	movhi	r7,32312
    1d70:	980b883a 	mov	r5,r19
    1d74:	319d6704 	addi	r6,r6,30108
    1d78:	39f90f04 	addi	r7,r7,-7108
    1d7c:	0009883a 	mov	r4,zero
    1d80:	00039880 	call	3988 <__muldf3>
    1d84:	01a20034 	movhi	r6,34816
    1d88:	01df8e34 	movhi	r7,32312
    1d8c:	319d6704 	addi	r6,r6,30108
    1d90:	39f90f04 	addi	r7,r7,-7108
    1d94:	1009883a 	mov	r4,r2
    1d98:	180b883a 	mov	r5,r3
    1d9c:	00039880 	call	3988 <__muldf3>
    1da0:	003c3b06 	br	e90 <_gp+0xffff2a70>
    1da4:	303c551e 	bne	r6,zero,efc <_gp+0xffff2adc>
    1da8:	1885c83a 	sub	r2,r3,r2
    1dac:	9087d83a 	sra	r3,r18,r2
    1db0:	1884983a 	sll	r2,r3,r2
    1db4:	90801f26 	beq	r18,r2,1e34 <__ieee754_pow+0x1094>
    1db8:	002b883a 	mov	r21,zero
    1dbc:	003c1806 	br	e20 <_gp+0xffff2a00>
    1dc0:	008ff834 	movhi	r2,16352
    1dc4:	157e6d16 	blt	r2,r21,177c <_gp+0xffff335c>
    1dc8:	d8000215 	stw	zero,8(sp)
    1dcc:	d8000015 	stw	zero,0(sp)
    1dd0:	003e8f06 	br	1810 <_gp+0xffff33f0>
    1dd4:	b80d883a 	mov	r6,r23
    1dd8:	180f883a 	mov	r7,r3
    1ddc:	003c9e06 	br	1058 <_gp+0xffff2c38>
    1de0:	008ff8f4 	movhi	r2,16355
    1de4:	10ae00c4 	addi	r2,r2,-18429
    1de8:	0250f434 	movhi	r9,17360
    1dec:	020f9374 	movhi	r8,15949
    1df0:	d8800215 	stw	r2,8(sp)
    1df4:	4a740184 	addi	r9,r9,-12282
    1df8:	423f7ac4 	addi	r8,r8,-533
    1dfc:	04d00034 	movhi	r19,16384
    1e00:	02800134 	movhi	r10,4
    1e04:	048ffe34 	movhi	r18,16376
    1e08:	003cbf06 	br	1108 <_gp+0xffff2ce8>
    1e0c:	00c9c83a 	sub	r4,zero,r3
    1e10:	d9000015 	stw	r4,0(sp)
    1e14:	003e6d06 	br	17cc <_gp+0xffff33ac>
    1e18:	d9800017 	ldw	r6,0(sp)
    1e1c:	1009883a 	mov	r4,r2
    1e20:	180b883a 	mov	r5,r3
    1e24:	00023700 	call	2370 <scalbn>
    1e28:	1009883a 	mov	r4,r2
    1e2c:	180b883a 	mov	r5,r3
    1e30:	003f2d06 	br	1ae8 <_gp+0xffff36c8>
    1e34:	18c0004c 	andi	r3,r3,1
    1e38:	02800084 	movi	r10,2
    1e3c:	50ebc83a 	sub	r21,r10,r3
    1e40:	003bf706 	br	e20 <_gp+0xffff2a00>

00001e44 <__ieee754_sqrt>:
    1e44:	defffd04 	addi	sp,sp,-12
    1e48:	dc400115 	stw	r17,4(sp)
    1e4c:	dc000015 	stw	r16,0(sp)
    1e50:	dfc00215 	stw	ra,8(sp)
    1e54:	28dffc2c 	andhi	r3,r5,32752
    1e58:	009ffc34 	movhi	r2,32752
    1e5c:	2821883a 	mov	r16,r5
    1e60:	2023883a 	mov	r17,r4
    1e64:	200d883a 	mov	r6,r4
    1e68:	18807b26 	beq	r3,r2,2058 <__ieee754_sqrt+0x214>
    1e6c:	01405f0e 	bge	zero,r5,1fec <__ieee754_sqrt+0x1a8>
    1e70:	2815d53a 	srai	r10,r5,20
    1e74:	50006a26 	beq	r10,zero,2020 <__ieee754_sqrt+0x1dc>
    1e78:	00c00434 	movhi	r3,16
    1e7c:	52bf0044 	addi	r10,r10,-1023
    1e80:	18ffffc4 	addi	r3,r3,-1
    1e84:	80c6703a 	and	r3,r16,r3
    1e88:	5080004c 	andi	r2,r10,1
    1e8c:	18c00434 	orhi	r3,r3,16
    1e90:	1000511e 	bne	r2,zero,1fd8 <__ieee754_sqrt+0x194>
    1e94:	3004d7fa 	srli	r2,r6,31
    1e98:	5015d07a 	srai	r10,r10,1
    1e9c:	18c7883a 	add	r3,r3,r3
    1ea0:	10c5883a 	add	r2,r2,r3
    1ea4:	01400584 	movi	r5,22
    1ea8:	3187883a 	add	r3,r6,r6
    1eac:	0013883a 	mov	r9,zero
    1eb0:	000f883a 	mov	r7,zero
    1eb4:	01000834 	movhi	r4,32
    1eb8:	390d883a 	add	r6,r7,r4
    1ebc:	1810d7fa 	srli	r8,r3,31
    1ec0:	297fffc4 	addi	r5,r5,-1
    1ec4:	11800316 	blt	r2,r6,1ed4 <__ieee754_sqrt+0x90>
    1ec8:	1185c83a 	sub	r2,r2,r6
    1ecc:	310f883a 	add	r7,r6,r4
    1ed0:	4913883a 	add	r9,r9,r4
    1ed4:	1085883a 	add	r2,r2,r2
    1ed8:	4085883a 	add	r2,r8,r2
    1edc:	18c7883a 	add	r3,r3,r3
    1ee0:	2008d07a 	srli	r4,r4,1
    1ee4:	283ff41e 	bne	r5,zero,1eb8 <_gp+0xffff3a98>
    1ee8:	01200034 	movhi	r4,32768
    1eec:	01800804 	movi	r6,32
    1ef0:	0011883a 	mov	r8,zero
    1ef4:	0019883a 	mov	r12,zero
    1ef8:	201b883a 	mov	r13,r4
    1efc:	00000806 	br	1f20 <__ieee754_sqrt+0xdc>
    1f00:	38801726 	beq	r7,r2,1f60 <__ieee754_sqrt+0x11c>
    1f04:	180ad7fa 	srli	r5,r3,31
    1f08:	1085883a 	add	r2,r2,r2
    1f0c:	31bfffc4 	addi	r6,r6,-1
    1f10:	2885883a 	add	r2,r5,r2
    1f14:	18c7883a 	add	r3,r3,r3
    1f18:	2008d07a 	srli	r4,r4,1
    1f1c:	30001726 	beq	r6,zero,1f7c <__ieee754_sqrt+0x138>
    1f20:	230b883a 	add	r5,r4,r12
    1f24:	38bff60e 	bge	r7,r2,1f00 <_gp+0xffff3ae0>
    1f28:	2ae0002c 	andhi	r11,r5,32768
    1f2c:	2919883a 	add	r12,r5,r4
    1f30:	5b400826 	beq	r11,r13,1f54 <__ieee754_sqrt+0x110>
    1f34:	3817883a 	mov	r11,r7
    1f38:	11c5c83a 	sub	r2,r2,r7
    1f3c:	1940012e 	bgeu	r3,r5,1f44 <__ieee754_sqrt+0x100>
    1f40:	10bfffc4 	addi	r2,r2,-1
    1f44:	1947c83a 	sub	r3,r3,r5
    1f48:	4111883a 	add	r8,r8,r4
    1f4c:	580f883a 	mov	r7,r11
    1f50:	003fec06 	br	1f04 <_gp+0xffff3ae4>
    1f54:	603ff716 	blt	r12,zero,1f34 <_gp+0xffff3b14>
    1f58:	3ac00044 	addi	r11,r7,1
    1f5c:	003ff606 	br	1f38 <_gp+0xffff3b18>
    1f60:	19401936 	bltu	r3,r5,1fc8 <__ieee754_sqrt+0x184>
    1f64:	2ae0002c 	andhi	r11,r5,32768
    1f68:	2919883a 	add	r12,r5,r4
    1f6c:	5b404526 	beq	r11,r13,2084 <__ieee754_sqrt+0x240>
    1f70:	1017883a 	mov	r11,r2
    1f74:	0005883a 	mov	r2,zero
    1f78:	003ff206 	br	1f44 <_gp+0xffff3b24>
    1f7c:	10c4b03a 	or	r2,r2,r3
    1f80:	10000426 	beq	r2,zero,1f94 <__ieee754_sqrt+0x150>
    1f84:	00bfffc4 	movi	r2,-1
    1f88:	40804026 	beq	r8,r2,208c <__ieee754_sqrt+0x248>
    1f8c:	4080004c 	andi	r2,r8,1
    1f90:	4091883a 	add	r8,r8,r2
    1f94:	4004d07a 	srli	r2,r8,1
    1f98:	4807d07a 	srai	r3,r9,1
    1f9c:	010ff834 	movhi	r4,16352
    1fa0:	4a40004c 	andi	r9,r9,1
    1fa4:	1909883a 	add	r4,r3,r4
    1fa8:	4800091e 	bne	r9,zero,1fd0 <__ieee754_sqrt+0x18c>
    1fac:	5006953a 	slli	r3,r10,20
    1fb0:	1907883a 	add	r3,r3,r4
    1fb4:	dfc00217 	ldw	ra,8(sp)
    1fb8:	dc400117 	ldw	r17,4(sp)
    1fbc:	dc000017 	ldw	r16,0(sp)
    1fc0:	dec00304 	addi	sp,sp,12
    1fc4:	f800283a 	ret
    1fc8:	3805883a 	mov	r2,r7
    1fcc:	003fcd06 	br	1f04 <_gp+0xffff3ae4>
    1fd0:	10a00034 	orhi	r2,r2,32768
    1fd4:	003ff506 	br	1fac <_gp+0xffff3b8c>
    1fd8:	3004d7fa 	srli	r2,r6,31
    1fdc:	18c7883a 	add	r3,r3,r3
    1fe0:	318d883a 	add	r6,r6,r6
    1fe4:	10c7883a 	add	r3,r2,r3
    1fe8:	003faa06 	br	1e94 <_gp+0xffff3a74>
    1fec:	00a00034 	movhi	r2,32768
    1ff0:	10bfffc4 	addi	r2,r2,-1
    1ff4:	2884703a 	and	r2,r5,r2
    1ff8:	1104b03a 	or	r2,r2,r4
    1ffc:	10001e26 	beq	r2,zero,2078 <__ieee754_sqrt+0x234>
    2000:	2800291e 	bne	r5,zero,20a8 <__ieee754_sqrt+0x264>
    2004:	0015883a 	mov	r10,zero
    2008:	3020d2fa 	srli	r16,r6,11
    200c:	52bffac4 	addi	r10,r10,-21
    2010:	300c957a 	slli	r6,r6,21
    2014:	803ffc26 	beq	r16,zero,2008 <_gp+0xffff3be8>
    2018:	8080042c 	andhi	r2,r16,16
    201c:	10001e1e 	bne	r2,zero,2098 <__ieee754_sqrt+0x254>
    2020:	0005883a 	mov	r2,zero
    2024:	00000106 	br	202c <__ieee754_sqrt+0x1e8>
    2028:	1805883a 	mov	r2,r3
    202c:	8421883a 	add	r16,r16,r16
    2030:	8100042c 	andhi	r4,r16,16
    2034:	10c00044 	addi	r3,r2,1
    2038:	203ffb26 	beq	r4,zero,2028 <_gp+0xffff3c08>
    203c:	01000804 	movi	r4,32
    2040:	20c9c83a 	sub	r4,r4,r3
    2044:	3108d83a 	srl	r4,r6,r4
    2048:	5095c83a 	sub	r10,r10,r2
    204c:	30cc983a 	sll	r6,r6,r3
    2050:	2420b03a 	or	r16,r4,r16
    2054:	003f8806 	br	1e78 <_gp+0xffff3a58>
    2058:	280f883a 	mov	r7,r5
    205c:	00039880 	call	3988 <__muldf3>
    2060:	880d883a 	mov	r6,r17
    2064:	800f883a 	mov	r7,r16
    2068:	1009883a 	mov	r4,r2
    206c:	180b883a 	mov	r5,r3
    2070:	000259c0 	call	259c <__adddf3>
    2074:	003fcf06 	br	1fb4 <_gp+0xffff3b94>
    2078:	2005883a 	mov	r2,r4
    207c:	2807883a 	mov	r3,r5
    2080:	003fcc06 	br	1fb4 <_gp+0xffff3b94>
    2084:	603fba16 	blt	r12,zero,1f70 <_gp+0xffff3b50>
    2088:	003fb306 	br	1f58 <_gp+0xffff3b38>
    208c:	4a400044 	addi	r9,r9,1
    2090:	0005883a 	mov	r2,zero
    2094:	003fc006 	br	1f98 <_gp+0xffff3b78>
    2098:	01000804 	movi	r4,32
    209c:	00bfffc4 	movi	r2,-1
    20a0:	0007883a 	mov	r3,zero
    20a4:	003fe706 	br	2044 <_gp+0xffff3c24>
    20a8:	200d883a 	mov	r6,r4
    20ac:	280f883a 	mov	r7,r5
    20b0:	00040a00 	call	40a0 <__subdf3>
    20b4:	100d883a 	mov	r6,r2
    20b8:	180f883a 	mov	r7,r3
    20bc:	1009883a 	mov	r4,r2
    20c0:	180b883a 	mov	r5,r3
    20c4:	0002e480 	call	2e48 <__divdf3>
    20c8:	003fba06 	br	1fb4 <_gp+0xffff3b94>

000020cc <fabs>:
    20cc:	00e00034 	movhi	r3,32768
    20d0:	18ffffc4 	addi	r3,r3,-1
    20d4:	2005883a 	mov	r2,r4
    20d8:	28c6703a 	and	r3,r5,r3
    20dc:	f800283a 	ret

000020e0 <finite>:
    20e0:	00a00034 	movhi	r2,32768
    20e4:	10bfffc4 	addi	r2,r2,-1
    20e8:	288a703a 	and	r5,r5,r2
    20ec:	00e00434 	movhi	r3,32784
    20f0:	28c5883a 	add	r2,r5,r3
    20f4:	1004d7fa 	srli	r2,r2,31
    20f8:	f800283a 	ret

000020fc <__fpclassifyd>:
    20fc:	00a00034 	movhi	r2,32768
    2100:	10bfffc4 	addi	r2,r2,-1
    2104:	2884703a 	and	r2,r5,r2
    2108:	10000726 	beq	r2,zero,2128 <__fpclassifyd+0x2c>
    210c:	00fffc34 	movhi	r3,65520
    2110:	019ff834 	movhi	r6,32736
    2114:	28c7883a 	add	r3,r5,r3
    2118:	31bfffc4 	addi	r6,r6,-1
    211c:	30c00536 	bltu	r6,r3,2134 <__fpclassifyd+0x38>
    2120:	00800104 	movi	r2,4
    2124:	f800283a 	ret
    2128:	2000021e 	bne	r4,zero,2134 <__fpclassifyd+0x38>
    212c:	00800084 	movi	r2,2
    2130:	f800283a 	ret
    2134:	00dffc34 	movhi	r3,32752
    2138:	019ff834 	movhi	r6,32736
    213c:	28cb883a 	add	r5,r5,r3
    2140:	31bfffc4 	addi	r6,r6,-1
    2144:	317ff62e 	bgeu	r6,r5,2120 <_gp+0xffff3d00>
    2148:	01400434 	movhi	r5,16
    214c:	297fffc4 	addi	r5,r5,-1
    2150:	28800236 	bltu	r5,r2,215c <__fpclassifyd+0x60>
    2154:	008000c4 	movi	r2,3
    2158:	f800283a 	ret
    215c:	10c00226 	beq	r2,r3,2168 <__fpclassifyd+0x6c>
    2160:	0005883a 	mov	r2,zero
    2164:	f800283a 	ret
    2168:	2005003a 	cmpeq	r2,r4,zero
    216c:	f800283a 	ret

00002170 <matherr>:
    2170:	0005883a 	mov	r2,zero
    2174:	f800283a 	ret

00002178 <nan>:
    2178:	0005883a 	mov	r2,zero
    217c:	00dffe34 	movhi	r3,32760
    2180:	f800283a 	ret

00002184 <rint>:
    2184:	2813d53a 	srai	r9,r5,20
    2188:	defff904 	addi	sp,sp,-28
    218c:	dc000215 	stw	r16,8(sp)
    2190:	4a41ffcc 	andi	r9,r9,2047
    2194:	dfc00615 	stw	ra,24(sp)
    2198:	dcc00515 	stw	r19,20(sp)
    219c:	dc800415 	stw	r18,16(sp)
    21a0:	dc400315 	stw	r17,12(sp)
    21a4:	01c004c4 	movi	r7,19
    21a8:	49bf0044 	addi	r6,r9,-1023
    21ac:	2811883a 	mov	r8,r5
    21b0:	2005883a 	mov	r2,r4
    21b4:	2807883a 	mov	r3,r5
    21b8:	2015883a 	mov	r10,r4
    21bc:	2820d7fa 	srli	r16,r5,31
    21c0:	39801316 	blt	r7,r6,2210 <rint+0x8c>
    21c4:	30003d16 	blt	r6,zero,22bc <rint+0x138>
    21c8:	01000434 	movhi	r4,16
    21cc:	213fffc4 	addi	r4,r4,-1
    21d0:	2189d83a 	sra	r4,r4,r6
    21d4:	290a703a 	and	r5,r5,r4
    21d8:	288ab03a 	or	r5,r5,r2
    21dc:	28001026 	beq	r5,zero,2220 <rint+0x9c>
    21e0:	2008d07a 	srli	r4,r4,1
    21e4:	4104703a 	and	r2,r8,r4
    21e8:	1294b03a 	or	r10,r2,r10
    21ec:	50005626 	beq	r10,zero,2348 <rint+0x1c4>
    21f0:	31c05d26 	beq	r6,r7,2368 <rint+0x1e4>
    21f4:	0015883a 	mov	r10,zero
    21f8:	00c00134 	movhi	r3,4
    21fc:	1987d83a 	sra	r3,r3,r6
    2200:	0108303a 	nor	r4,zero,r4
    2204:	2210703a 	and	r8,r4,r8
    2208:	40c6b03a 	or	r3,r8,r3
    220c:	00001806 	br	2270 <rint+0xec>
    2210:	01c00cc4 	movi	r7,51
    2214:	3980090e 	bge	r7,r6,223c <rint+0xb8>
    2218:	01c10004 	movi	r7,1024
    221c:	31c04e26 	beq	r6,r7,2358 <rint+0x1d4>
    2220:	dfc00617 	ldw	ra,24(sp)
    2224:	dcc00517 	ldw	r19,20(sp)
    2228:	dc800417 	ldw	r18,16(sp)
    222c:	dc400317 	ldw	r17,12(sp)
    2230:	dc000217 	ldw	r16,8(sp)
    2234:	dec00704 	addi	sp,sp,28
    2238:	f800283a 	ret
    223c:	4a7efb44 	addi	r9,r9,-1043
    2240:	013fffc4 	movi	r4,-1
    2244:	2248d83a 	srl	r4,r4,r9
    2248:	110a703a 	and	r5,r2,r4
    224c:	28004026 	beq	r5,zero,2350 <rint+0x1cc>
    2250:	2008d07a 	srli	r4,r4,1
    2254:	1104703a 	and	r2,r2,r4
    2258:	10000526 	beq	r2,zero,2270 <rint+0xec>
    225c:	00900034 	movhi	r2,16384
    2260:	1253d83a 	sra	r9,r2,r9
    2264:	0108303a 	nor	r4,zero,r4
    2268:	2294703a 	and	r10,r4,r10
    226c:	4a94b03a 	or	r10,r9,r10
    2270:	802090fa 	slli	r16,r16,3
    2274:	180b883a 	mov	r5,r3
    2278:	00c00034 	movhi	r3,0
    227c:	18d87704 	addi	r3,r3,25052
    2280:	1c21883a 	add	r16,r3,r16
    2284:	84400017 	ldw	r17,0(r16)
    2288:	84000117 	ldw	r16,4(r16)
    228c:	5009883a 	mov	r4,r10
    2290:	880d883a 	mov	r6,r17
    2294:	800f883a 	mov	r7,r16
    2298:	000259c0 	call	259c <__adddf3>
    229c:	d8800015 	stw	r2,0(sp)
    22a0:	d8c00115 	stw	r3,4(sp)
    22a4:	d9000017 	ldw	r4,0(sp)
    22a8:	d9400117 	ldw	r5,4(sp)
    22ac:	880d883a 	mov	r6,r17
    22b0:	800f883a 	mov	r7,r16
    22b4:	00040a00 	call	40a0 <__subdf3>
    22b8:	003fd906 	br	2220 <_gp+0xffff3e00>
    22bc:	04600034 	movhi	r17,32768
    22c0:	8c7fffc4 	addi	r17,r17,-1
    22c4:	2c46703a 	and	r3,r5,r17
    22c8:	1906b03a 	or	r3,r3,r4
    22cc:	18002026 	beq	r3,zero,2350 <rint+0x1cc>
    22d0:	01800434 	movhi	r6,16
    22d4:	31bfffc4 	addi	r6,r6,-1
    22d8:	298c703a 	and	r6,r5,r6
    22dc:	3104b03a 	or	r2,r6,r4
    22e0:	008bc83a 	sub	r5,zero,r2
    22e4:	800690fa 	slli	r3,r16,3
    22e8:	2884b03a 	or	r2,r5,r2
    22ec:	01400034 	movhi	r5,0
    22f0:	29587704 	addi	r5,r5,25052
    22f4:	28c7883a 	add	r3,r5,r3
    22f8:	1004d33a 	srli	r2,r2,12
    22fc:	1cc00017 	ldw	r19,0(r3)
    2300:	1c800117 	ldw	r18,4(r3)
    2304:	417fffac 	andhi	r5,r8,65534
    2308:	1080022c 	andhi	r2,r2,8
    230c:	980d883a 	mov	r6,r19
    2310:	900f883a 	mov	r7,r18
    2314:	114ab03a 	or	r5,r2,r5
    2318:	000259c0 	call	259c <__adddf3>
    231c:	d8800015 	stw	r2,0(sp)
    2320:	d8c00115 	stw	r3,4(sp)
    2324:	d9000017 	ldw	r4,0(sp)
    2328:	d9400117 	ldw	r5,4(sp)
    232c:	980d883a 	mov	r6,r19
    2330:	900f883a 	mov	r7,r18
    2334:	00040a00 	call	40a0 <__subdf3>
    2338:	800897fa 	slli	r4,r16,31
    233c:	1c46703a 	and	r3,r3,r17
    2340:	1906b03a 	or	r3,r3,r4
    2344:	003fb606 	br	2220 <_gp+0xffff3e00>
    2348:	0015883a 	mov	r10,zero
    234c:	003fc806 	br	2270 <_gp+0xffff3e50>
    2350:	4007883a 	mov	r3,r8
    2354:	003fb206 	br	2220 <_gp+0xffff3e00>
    2358:	200d883a 	mov	r6,r4
    235c:	280f883a 	mov	r7,r5
    2360:	000259c0 	call	259c <__adddf3>
    2364:	003fae06 	br	2220 <_gp+0xffff3e00>
    2368:	02a00034 	movhi	r10,32768
    236c:	003fa206 	br	21f8 <_gp+0xffff3dd8>

00002370 <scalbn>:
    2370:	2a1ffc2c 	andhi	r8,r5,32752
    2374:	4011d53a 	srai	r8,r8,20
    2378:	defffe04 	addi	sp,sp,-8
    237c:	dc000015 	stw	r16,0(sp)
    2380:	dfc00115 	stw	ra,4(sp)
    2384:	280f883a 	mov	r7,r5
    2388:	2015883a 	mov	r10,r4
    238c:	3021883a 	mov	r16,r6
    2390:	40001e1e 	bne	r8,zero,240c <scalbn+0x9c>
    2394:	00a00034 	movhi	r2,32768
    2398:	10bfffc4 	addi	r2,r2,-1
    239c:	2884703a 	and	r2,r5,r2
    23a0:	1104b03a 	or	r2,r2,r4
    23a4:	10002226 	beq	r2,zero,2430 <scalbn+0xc0>
    23a8:	01d0d434 	movhi	r7,17232
    23ac:	000d883a 	mov	r6,zero
    23b0:	00039880 	call	3988 <__muldf3>
    23b4:	013ffff4 	movhi	r4,65535
    23b8:	210f2c04 	addi	r4,r4,15536
    23bc:	1015883a 	mov	r10,r2
    23c0:	180f883a 	mov	r7,r3
    23c4:	81002a16 	blt	r16,r4,2470 <scalbn+0x100>
    23c8:	191ffc2c 	andhi	r4,r3,32752
    23cc:	2009d53a 	srai	r4,r4,20
    23d0:	223ff284 	addi	r8,r4,-54
    23d4:	8211883a 	add	r8,r16,r8
    23d8:	0081ff84 	movi	r2,2046
    23dc:	12002f16 	blt	r2,r8,249c <scalbn+0x12c>
    23e0:	0200190e 	bge	zero,r8,2448 <scalbn+0xd8>
    23e4:	4010953a 	slli	r8,r8,20
    23e8:	01600434 	movhi	r5,32784
    23ec:	297fffc4 	addi	r5,r5,-1
    23f0:	194e703a 	and	r7,r3,r5
    23f4:	5005883a 	mov	r2,r10
    23f8:	3a06b03a 	or	r3,r7,r8
    23fc:	dfc00117 	ldw	ra,4(sp)
    2400:	dc000017 	ldw	r16,0(sp)
    2404:	dec00204 	addi	sp,sp,8
    2408:	f800283a 	ret
    240c:	0081ffc4 	movi	r2,2047
    2410:	2807883a 	mov	r3,r5
    2414:	40bfef1e 	bne	r8,r2,23d4 <_gp+0xffff3fb4>
    2418:	200d883a 	mov	r6,r4
    241c:	000259c0 	call	259c <__adddf3>
    2420:	dfc00117 	ldw	ra,4(sp)
    2424:	dc000017 	ldw	r16,0(sp)
    2428:	dec00204 	addi	sp,sp,8
    242c:	f800283a 	ret
    2430:	2005883a 	mov	r2,r4
    2434:	2807883a 	mov	r3,r5
    2438:	dfc00117 	ldw	ra,4(sp)
    243c:	dc000017 	ldw	r16,0(sp)
    2440:	dec00204 	addi	sp,sp,8
    2444:	f800283a 	ret
    2448:	00bff2c4 	movi	r2,-53
    244c:	4080240e 	bge	r8,r2,24e0 <scalbn+0x170>
    2450:	00b0d414 	movui	r2,50000
    2454:	14001116 	blt	r2,r16,249c <scalbn+0x12c>
    2458:	0130be74 	movhi	r4,49913
    245c:	01406974 	movhi	r5,421
    2460:	213cd644 	addi	r4,r4,-3239
    2464:	295b87c4 	addi	r5,r5,28191
    2468:	500d883a 	mov	r6,r10
    246c:	000250c0 	call	250c <copysign>
    2470:	01b0be74 	movhi	r6,49913
    2474:	01c06974 	movhi	r7,421
    2478:	31bcd644 	addi	r6,r6,-3239
    247c:	39db87c4 	addi	r7,r7,28191
    2480:	1009883a 	mov	r4,r2
    2484:	180b883a 	mov	r5,r3
    2488:	00039880 	call	3988 <__muldf3>
    248c:	dfc00117 	ldw	ra,4(sp)
    2490:	dc000017 	ldw	r16,0(sp)
    2494:	dec00204 	addi	sp,sp,8
    2498:	f800283a 	ret
    249c:	01220034 	movhi	r4,34816
    24a0:	015f8e34 	movhi	r5,32312
    24a4:	500d883a 	mov	r6,r10
    24a8:	211d6704 	addi	r4,r4,30108
    24ac:	29790f04 	addi	r5,r5,-7108
    24b0:	000250c0 	call	250c <copysign>
    24b4:	01a20034 	movhi	r6,34816
    24b8:	01df8e34 	movhi	r7,32312
    24bc:	319d6704 	addi	r6,r6,30108
    24c0:	39f90f04 	addi	r7,r7,-7108
    24c4:	1009883a 	mov	r4,r2
    24c8:	180b883a 	mov	r5,r3
    24cc:	00039880 	call	3988 <__muldf3>
    24d0:	dfc00117 	ldw	ra,4(sp)
    24d4:	dc000017 	ldw	r16,0(sp)
    24d8:	dec00204 	addi	sp,sp,8
    24dc:	f800283a 	ret
    24e0:	42000d84 	addi	r8,r8,54
    24e4:	4012953a 	slli	r9,r8,20
    24e8:	01e00434 	movhi	r7,32784
    24ec:	39ffffc4 	addi	r7,r7,-1
    24f0:	19ca703a 	and	r5,r3,r7
    24f4:	000d883a 	mov	r6,zero
    24f8:	01cf2434 	movhi	r7,15504
    24fc:	5009883a 	mov	r4,r10
    2500:	494ab03a 	or	r5,r9,r5
    2504:	00039880 	call	3988 <__muldf3>
    2508:	003fbc06 	br	23fc <_gp+0xffff3fdc>

0000250c <copysign>:
    250c:	2005883a 	mov	r2,r4
    2510:	01200034 	movhi	r4,32768
    2514:	213fffc4 	addi	r4,r4,-1
    2518:	38e0002c 	andhi	r3,r7,32768
    251c:	290a703a 	and	r5,r5,r4
    2520:	28c6b03a 	or	r3,r5,r3
    2524:	f800283a 	ret

00002528 <__fixunsdfsi>:
    2528:	defffd04 	addi	sp,sp,-12
    252c:	000d883a 	mov	r6,zero
    2530:	01d07834 	movhi	r7,16864
    2534:	dc400115 	stw	r17,4(sp)
    2538:	dc000015 	stw	r16,0(sp)
    253c:	dfc00215 	stw	ra,8(sp)
    2540:	2023883a 	mov	r17,r4
    2544:	2821883a 	mov	r16,r5
    2548:	00037b80 	call	37b8 <__gedf2>
    254c:	1000080e 	bge	r2,zero,2570 <__fixunsdfsi+0x48>
    2550:	8809883a 	mov	r4,r17
    2554:	800b883a 	mov	r5,r16
    2558:	000499c0 	call	499c <__fixdfsi>
    255c:	dfc00217 	ldw	ra,8(sp)
    2560:	dc400117 	ldw	r17,4(sp)
    2564:	dc000017 	ldw	r16,0(sp)
    2568:	dec00304 	addi	sp,sp,12
    256c:	f800283a 	ret
    2570:	000d883a 	mov	r6,zero
    2574:	01d07834 	movhi	r7,16864
    2578:	8809883a 	mov	r4,r17
    257c:	800b883a 	mov	r5,r16
    2580:	00040a00 	call	40a0 <__subdf3>
    2584:	180b883a 	mov	r5,r3
    2588:	1009883a 	mov	r4,r2
    258c:	000499c0 	call	499c <__fixdfsi>
    2590:	00e00034 	movhi	r3,32768
    2594:	10c5883a 	add	r2,r2,r3
    2598:	003ff006 	br	255c <_gp+0xffff413c>

0000259c <__adddf3>:
    259c:	02c00434 	movhi	r11,16
    25a0:	5affffc4 	addi	r11,r11,-1
    25a4:	2806d7fa 	srli	r3,r5,31
    25a8:	2ad4703a 	and	r10,r5,r11
    25ac:	3ad2703a 	and	r9,r7,r11
    25b0:	3804d53a 	srli	r2,r7,20
    25b4:	3018d77a 	srli	r12,r6,29
    25b8:	280ad53a 	srli	r5,r5,20
    25bc:	501490fa 	slli	r10,r10,3
    25c0:	2010d77a 	srli	r8,r4,29
    25c4:	481290fa 	slli	r9,r9,3
    25c8:	380ed7fa 	srli	r7,r7,31
    25cc:	defffb04 	addi	sp,sp,-20
    25d0:	dc800215 	stw	r18,8(sp)
    25d4:	dc400115 	stw	r17,4(sp)
    25d8:	dc000015 	stw	r16,0(sp)
    25dc:	dfc00415 	stw	ra,16(sp)
    25e0:	dcc00315 	stw	r19,12(sp)
    25e4:	1c803fcc 	andi	r18,r3,255
    25e8:	2c01ffcc 	andi	r16,r5,2047
    25ec:	5210b03a 	or	r8,r10,r8
    25f0:	202290fa 	slli	r17,r4,3
    25f4:	1081ffcc 	andi	r2,r2,2047
    25f8:	4b12b03a 	or	r9,r9,r12
    25fc:	300c90fa 	slli	r6,r6,3
    2600:	91c07526 	beq	r18,r7,27d8 <__adddf3+0x23c>
    2604:	8087c83a 	sub	r3,r16,r2
    2608:	00c0ab0e 	bge	zero,r3,28b8 <__adddf3+0x31c>
    260c:	10002a1e 	bne	r2,zero,26b8 <__adddf3+0x11c>
    2610:	4984b03a 	or	r2,r9,r6
    2614:	1000961e 	bne	r2,zero,2870 <__adddf3+0x2d4>
    2618:	888001cc 	andi	r2,r17,7
    261c:	10000726 	beq	r2,zero,263c <__adddf3+0xa0>
    2620:	888003cc 	andi	r2,r17,15
    2624:	00c00104 	movi	r3,4
    2628:	10c00426 	beq	r2,r3,263c <__adddf3+0xa0>
    262c:	88c7883a 	add	r3,r17,r3
    2630:	1c63803a 	cmpltu	r17,r3,r17
    2634:	4451883a 	add	r8,r8,r17
    2638:	1823883a 	mov	r17,r3
    263c:	4080202c 	andhi	r2,r8,128
    2640:	10005926 	beq	r2,zero,27a8 <__adddf3+0x20c>
    2644:	84000044 	addi	r16,r16,1
    2648:	0081ffc4 	movi	r2,2047
    264c:	8080ba26 	beq	r16,r2,2938 <__adddf3+0x39c>
    2650:	00bfe034 	movhi	r2,65408
    2654:	10bfffc4 	addi	r2,r2,-1
    2658:	4090703a 	and	r8,r8,r2
    265c:	4004977a 	slli	r2,r8,29
    2660:	4010927a 	slli	r8,r8,9
    2664:	8822d0fa 	srli	r17,r17,3
    2668:	8401ffcc 	andi	r16,r16,2047
    266c:	4010d33a 	srli	r8,r8,12
    2670:	9007883a 	mov	r3,r18
    2674:	1444b03a 	or	r2,r2,r17
    2678:	8401ffcc 	andi	r16,r16,2047
    267c:	8020953a 	slli	r16,r16,20
    2680:	18c03fcc 	andi	r3,r3,255
    2684:	01000434 	movhi	r4,16
    2688:	213fffc4 	addi	r4,r4,-1
    268c:	180697fa 	slli	r3,r3,31
    2690:	4110703a 	and	r8,r8,r4
    2694:	4410b03a 	or	r8,r8,r16
    2698:	40c6b03a 	or	r3,r8,r3
    269c:	dfc00417 	ldw	ra,16(sp)
    26a0:	dcc00317 	ldw	r19,12(sp)
    26a4:	dc800217 	ldw	r18,8(sp)
    26a8:	dc400117 	ldw	r17,4(sp)
    26ac:	dc000017 	ldw	r16,0(sp)
    26b0:	dec00504 	addi	sp,sp,20
    26b4:	f800283a 	ret
    26b8:	0081ffc4 	movi	r2,2047
    26bc:	80bfd626 	beq	r16,r2,2618 <_gp+0xffff41f8>
    26c0:	4a402034 	orhi	r9,r9,128
    26c4:	00800e04 	movi	r2,56
    26c8:	10c09f16 	blt	r2,r3,2948 <__adddf3+0x3ac>
    26cc:	008007c4 	movi	r2,31
    26d0:	10c0c216 	blt	r2,r3,29dc <__adddf3+0x440>
    26d4:	00800804 	movi	r2,32
    26d8:	10c5c83a 	sub	r2,r2,r3
    26dc:	488a983a 	sll	r5,r9,r2
    26e0:	30c8d83a 	srl	r4,r6,r3
    26e4:	3084983a 	sll	r2,r6,r2
    26e8:	48c6d83a 	srl	r3,r9,r3
    26ec:	290cb03a 	or	r6,r5,r4
    26f0:	1004c03a 	cmpne	r2,r2,zero
    26f4:	308cb03a 	or	r6,r6,r2
    26f8:	898dc83a 	sub	r6,r17,r6
    26fc:	89a3803a 	cmpltu	r17,r17,r6
    2700:	40d1c83a 	sub	r8,r8,r3
    2704:	4451c83a 	sub	r8,r8,r17
    2708:	3023883a 	mov	r17,r6
    270c:	4080202c 	andhi	r2,r8,128
    2710:	10002326 	beq	r2,zero,27a0 <__adddf3+0x204>
    2714:	04c02034 	movhi	r19,128
    2718:	9cffffc4 	addi	r19,r19,-1
    271c:	44e6703a 	and	r19,r8,r19
    2720:	98007626 	beq	r19,zero,28fc <__adddf3+0x360>
    2724:	9809883a 	mov	r4,r19
    2728:	0004ba00 	call	4ba0 <__clzsi2>
    272c:	10fffe04 	addi	r3,r2,-8
    2730:	010007c4 	movi	r4,31
    2734:	20c07716 	blt	r4,r3,2914 <__adddf3+0x378>
    2738:	00800804 	movi	r2,32
    273c:	10c5c83a 	sub	r2,r2,r3
    2740:	8884d83a 	srl	r2,r17,r2
    2744:	98d0983a 	sll	r8,r19,r3
    2748:	88e2983a 	sll	r17,r17,r3
    274c:	1204b03a 	or	r2,r2,r8
    2750:	1c007416 	blt	r3,r16,2924 <__adddf3+0x388>
    2754:	1c21c83a 	sub	r16,r3,r16
    2758:	82000044 	addi	r8,r16,1
    275c:	00c007c4 	movi	r3,31
    2760:	1a009116 	blt	r3,r8,29a8 <__adddf3+0x40c>
    2764:	00c00804 	movi	r3,32
    2768:	1a07c83a 	sub	r3,r3,r8
    276c:	8a08d83a 	srl	r4,r17,r8
    2770:	88e2983a 	sll	r17,r17,r3
    2774:	10c6983a 	sll	r3,r2,r3
    2778:	1210d83a 	srl	r8,r2,r8
    277c:	8804c03a 	cmpne	r2,r17,zero
    2780:	1906b03a 	or	r3,r3,r4
    2784:	18a2b03a 	or	r17,r3,r2
    2788:	0021883a 	mov	r16,zero
    278c:	003fa206 	br	2618 <_gp+0xffff41f8>
    2790:	1890b03a 	or	r8,r3,r2
    2794:	40017d26 	beq	r8,zero,2d8c <__adddf3+0x7f0>
    2798:	1011883a 	mov	r8,r2
    279c:	1823883a 	mov	r17,r3
    27a0:	888001cc 	andi	r2,r17,7
    27a4:	103f9e1e 	bne	r2,zero,2620 <_gp+0xffff4200>
    27a8:	4004977a 	slli	r2,r8,29
    27ac:	8822d0fa 	srli	r17,r17,3
    27b0:	4010d0fa 	srli	r8,r8,3
    27b4:	9007883a 	mov	r3,r18
    27b8:	1444b03a 	or	r2,r2,r17
    27bc:	0101ffc4 	movi	r4,2047
    27c0:	81002426 	beq	r16,r4,2854 <__adddf3+0x2b8>
    27c4:	8120703a 	and	r16,r16,r4
    27c8:	01000434 	movhi	r4,16
    27cc:	213fffc4 	addi	r4,r4,-1
    27d0:	4110703a 	and	r8,r8,r4
    27d4:	003fa806 	br	2678 <_gp+0xffff4258>
    27d8:	8089c83a 	sub	r4,r16,r2
    27dc:	01005e0e 	bge	zero,r4,2958 <__adddf3+0x3bc>
    27e0:	10002b26 	beq	r2,zero,2890 <__adddf3+0x2f4>
    27e4:	0081ffc4 	movi	r2,2047
    27e8:	80bf8b26 	beq	r16,r2,2618 <_gp+0xffff41f8>
    27ec:	4a402034 	orhi	r9,r9,128
    27f0:	00800e04 	movi	r2,56
    27f4:	1100a40e 	bge	r2,r4,2a88 <__adddf3+0x4ec>
    27f8:	498cb03a 	or	r6,r9,r6
    27fc:	300ac03a 	cmpne	r5,r6,zero
    2800:	0013883a 	mov	r9,zero
    2804:	2c4b883a 	add	r5,r5,r17
    2808:	2c63803a 	cmpltu	r17,r5,r17
    280c:	4a11883a 	add	r8,r9,r8
    2810:	8a11883a 	add	r8,r17,r8
    2814:	2823883a 	mov	r17,r5
    2818:	4080202c 	andhi	r2,r8,128
    281c:	103fe026 	beq	r2,zero,27a0 <_gp+0xffff4380>
    2820:	84000044 	addi	r16,r16,1
    2824:	0081ffc4 	movi	r2,2047
    2828:	8080d226 	beq	r16,r2,2b74 <__adddf3+0x5d8>
    282c:	00bfe034 	movhi	r2,65408
    2830:	10bfffc4 	addi	r2,r2,-1
    2834:	4090703a 	and	r8,r8,r2
    2838:	880ad07a 	srli	r5,r17,1
    283c:	400897fa 	slli	r4,r8,31
    2840:	88c0004c 	andi	r3,r17,1
    2844:	28e2b03a 	or	r17,r5,r3
    2848:	4010d07a 	srli	r8,r8,1
    284c:	2462b03a 	or	r17,r4,r17
    2850:	003f7106 	br	2618 <_gp+0xffff41f8>
    2854:	4088b03a 	or	r4,r8,r2
    2858:	20014526 	beq	r4,zero,2d70 <__adddf3+0x7d4>
    285c:	01000434 	movhi	r4,16
    2860:	42000234 	orhi	r8,r8,8
    2864:	213fffc4 	addi	r4,r4,-1
    2868:	4110703a 	and	r8,r8,r4
    286c:	003f8206 	br	2678 <_gp+0xffff4258>
    2870:	18ffffc4 	addi	r3,r3,-1
    2874:	1800491e 	bne	r3,zero,299c <__adddf3+0x400>
    2878:	898bc83a 	sub	r5,r17,r6
    287c:	8963803a 	cmpltu	r17,r17,r5
    2880:	4251c83a 	sub	r8,r8,r9
    2884:	4451c83a 	sub	r8,r8,r17
    2888:	2823883a 	mov	r17,r5
    288c:	003f9f06 	br	270c <_gp+0xffff42ec>
    2890:	4984b03a 	or	r2,r9,r6
    2894:	103f6026 	beq	r2,zero,2618 <_gp+0xffff41f8>
    2898:	213fffc4 	addi	r4,r4,-1
    289c:	2000931e 	bne	r4,zero,2aec <__adddf3+0x550>
    28a0:	898d883a 	add	r6,r17,r6
    28a4:	3463803a 	cmpltu	r17,r6,r17
    28a8:	4251883a 	add	r8,r8,r9
    28ac:	8a11883a 	add	r8,r17,r8
    28b0:	3023883a 	mov	r17,r6
    28b4:	003fd806 	br	2818 <_gp+0xffff43f8>
    28b8:	1800541e 	bne	r3,zero,2a0c <__adddf3+0x470>
    28bc:	80800044 	addi	r2,r16,1
    28c0:	1081ffcc 	andi	r2,r2,2047
    28c4:	00c00044 	movi	r3,1
    28c8:	1880a00e 	bge	r3,r2,2b4c <__adddf3+0x5b0>
    28cc:	8989c83a 	sub	r4,r17,r6
    28d0:	8905803a 	cmpltu	r2,r17,r4
    28d4:	4267c83a 	sub	r19,r8,r9
    28d8:	98a7c83a 	sub	r19,r19,r2
    28dc:	9880202c 	andhi	r2,r19,128
    28e0:	10006326 	beq	r2,zero,2a70 <__adddf3+0x4d4>
    28e4:	3463c83a 	sub	r17,r6,r17
    28e8:	4a07c83a 	sub	r3,r9,r8
    28ec:	344d803a 	cmpltu	r6,r6,r17
    28f0:	19a7c83a 	sub	r19,r3,r6
    28f4:	3825883a 	mov	r18,r7
    28f8:	983f8a1e 	bne	r19,zero,2724 <_gp+0xffff4304>
    28fc:	8809883a 	mov	r4,r17
    2900:	0004ba00 	call	4ba0 <__clzsi2>
    2904:	10800804 	addi	r2,r2,32
    2908:	10fffe04 	addi	r3,r2,-8
    290c:	010007c4 	movi	r4,31
    2910:	20ff890e 	bge	r4,r3,2738 <_gp+0xffff4318>
    2914:	10bff604 	addi	r2,r2,-40
    2918:	8884983a 	sll	r2,r17,r2
    291c:	0023883a 	mov	r17,zero
    2920:	1c3f8c0e 	bge	r3,r16,2754 <_gp+0xffff4334>
    2924:	023fe034 	movhi	r8,65408
    2928:	423fffc4 	addi	r8,r8,-1
    292c:	80e1c83a 	sub	r16,r16,r3
    2930:	1210703a 	and	r8,r2,r8
    2934:	003f3806 	br	2618 <_gp+0xffff41f8>
    2938:	9007883a 	mov	r3,r18
    293c:	0011883a 	mov	r8,zero
    2940:	0005883a 	mov	r2,zero
    2944:	003f4c06 	br	2678 <_gp+0xffff4258>
    2948:	498cb03a 	or	r6,r9,r6
    294c:	300cc03a 	cmpne	r6,r6,zero
    2950:	0007883a 	mov	r3,zero
    2954:	003f6806 	br	26f8 <_gp+0xffff42d8>
    2958:	20009c1e 	bne	r4,zero,2bcc <__adddf3+0x630>
    295c:	80800044 	addi	r2,r16,1
    2960:	1141ffcc 	andi	r5,r2,2047
    2964:	01000044 	movi	r4,1
    2968:	2140670e 	bge	r4,r5,2b08 <__adddf3+0x56c>
    296c:	0101ffc4 	movi	r4,2047
    2970:	11007f26 	beq	r2,r4,2b70 <__adddf3+0x5d4>
    2974:	898d883a 	add	r6,r17,r6
    2978:	4247883a 	add	r3,r8,r9
    297c:	3451803a 	cmpltu	r8,r6,r17
    2980:	40d1883a 	add	r8,r8,r3
    2984:	402297fa 	slli	r17,r8,31
    2988:	300cd07a 	srli	r6,r6,1
    298c:	4010d07a 	srli	r8,r8,1
    2990:	1021883a 	mov	r16,r2
    2994:	89a2b03a 	or	r17,r17,r6
    2998:	003f1f06 	br	2618 <_gp+0xffff41f8>
    299c:	0081ffc4 	movi	r2,2047
    29a0:	80bf481e 	bne	r16,r2,26c4 <_gp+0xffff42a4>
    29a4:	003f1c06 	br	2618 <_gp+0xffff41f8>
    29a8:	843ff844 	addi	r16,r16,-31
    29ac:	01000804 	movi	r4,32
    29b0:	1406d83a 	srl	r3,r2,r16
    29b4:	41005026 	beq	r8,r4,2af8 <__adddf3+0x55c>
    29b8:	01001004 	movi	r4,64
    29bc:	2211c83a 	sub	r8,r4,r8
    29c0:	1204983a 	sll	r2,r2,r8
    29c4:	88a2b03a 	or	r17,r17,r2
    29c8:	8822c03a 	cmpne	r17,r17,zero
    29cc:	1c62b03a 	or	r17,r3,r17
    29d0:	0011883a 	mov	r8,zero
    29d4:	0021883a 	mov	r16,zero
    29d8:	003f7106 	br	27a0 <_gp+0xffff4380>
    29dc:	193ff804 	addi	r4,r3,-32
    29e0:	00800804 	movi	r2,32
    29e4:	4908d83a 	srl	r4,r9,r4
    29e8:	18804526 	beq	r3,r2,2b00 <__adddf3+0x564>
    29ec:	00801004 	movi	r2,64
    29f0:	10c5c83a 	sub	r2,r2,r3
    29f4:	4886983a 	sll	r3,r9,r2
    29f8:	198cb03a 	or	r6,r3,r6
    29fc:	300cc03a 	cmpne	r6,r6,zero
    2a00:	218cb03a 	or	r6,r4,r6
    2a04:	0007883a 	mov	r3,zero
    2a08:	003f3b06 	br	26f8 <_gp+0xffff42d8>
    2a0c:	80002a26 	beq	r16,zero,2ab8 <__adddf3+0x51c>
    2a10:	0101ffc4 	movi	r4,2047
    2a14:	11006826 	beq	r2,r4,2bb8 <__adddf3+0x61c>
    2a18:	00c7c83a 	sub	r3,zero,r3
    2a1c:	42002034 	orhi	r8,r8,128
    2a20:	01000e04 	movi	r4,56
    2a24:	20c07c16 	blt	r4,r3,2c18 <__adddf3+0x67c>
    2a28:	010007c4 	movi	r4,31
    2a2c:	20c0da16 	blt	r4,r3,2d98 <__adddf3+0x7fc>
    2a30:	01000804 	movi	r4,32
    2a34:	20c9c83a 	sub	r4,r4,r3
    2a38:	4114983a 	sll	r10,r8,r4
    2a3c:	88cad83a 	srl	r5,r17,r3
    2a40:	8908983a 	sll	r4,r17,r4
    2a44:	40c6d83a 	srl	r3,r8,r3
    2a48:	5162b03a 	or	r17,r10,r5
    2a4c:	2008c03a 	cmpne	r4,r4,zero
    2a50:	8922b03a 	or	r17,r17,r4
    2a54:	3463c83a 	sub	r17,r6,r17
    2a58:	48c7c83a 	sub	r3,r9,r3
    2a5c:	344d803a 	cmpltu	r6,r6,r17
    2a60:	1991c83a 	sub	r8,r3,r6
    2a64:	1021883a 	mov	r16,r2
    2a68:	3825883a 	mov	r18,r7
    2a6c:	003f2706 	br	270c <_gp+0xffff42ec>
    2a70:	24d0b03a 	or	r8,r4,r19
    2a74:	40001b1e 	bne	r8,zero,2ae4 <__adddf3+0x548>
    2a78:	0005883a 	mov	r2,zero
    2a7c:	0007883a 	mov	r3,zero
    2a80:	0021883a 	mov	r16,zero
    2a84:	003f4d06 	br	27bc <_gp+0xffff439c>
    2a88:	008007c4 	movi	r2,31
    2a8c:	11003c16 	blt	r2,r4,2b80 <__adddf3+0x5e4>
    2a90:	00800804 	movi	r2,32
    2a94:	1105c83a 	sub	r2,r2,r4
    2a98:	488e983a 	sll	r7,r9,r2
    2a9c:	310ad83a 	srl	r5,r6,r4
    2aa0:	3084983a 	sll	r2,r6,r2
    2aa4:	4912d83a 	srl	r9,r9,r4
    2aa8:	394ab03a 	or	r5,r7,r5
    2aac:	1004c03a 	cmpne	r2,r2,zero
    2ab0:	288ab03a 	or	r5,r5,r2
    2ab4:	003f5306 	br	2804 <_gp+0xffff43e4>
    2ab8:	4448b03a 	or	r4,r8,r17
    2abc:	20003e26 	beq	r4,zero,2bb8 <__adddf3+0x61c>
    2ac0:	00c6303a 	nor	r3,zero,r3
    2ac4:	18003a1e 	bne	r3,zero,2bb0 <__adddf3+0x614>
    2ac8:	3463c83a 	sub	r17,r6,r17
    2acc:	4a07c83a 	sub	r3,r9,r8
    2ad0:	344d803a 	cmpltu	r6,r6,r17
    2ad4:	1991c83a 	sub	r8,r3,r6
    2ad8:	1021883a 	mov	r16,r2
    2adc:	3825883a 	mov	r18,r7
    2ae0:	003f0a06 	br	270c <_gp+0xffff42ec>
    2ae4:	2023883a 	mov	r17,r4
    2ae8:	003f0d06 	br	2720 <_gp+0xffff4300>
    2aec:	0081ffc4 	movi	r2,2047
    2af0:	80bf3f1e 	bne	r16,r2,27f0 <_gp+0xffff43d0>
    2af4:	003ec806 	br	2618 <_gp+0xffff41f8>
    2af8:	0005883a 	mov	r2,zero
    2afc:	003fb106 	br	29c4 <_gp+0xffff45a4>
    2b00:	0007883a 	mov	r3,zero
    2b04:	003fbc06 	br	29f8 <_gp+0xffff45d8>
    2b08:	4444b03a 	or	r2,r8,r17
    2b0c:	8000871e 	bne	r16,zero,2d2c <__adddf3+0x790>
    2b10:	1000ba26 	beq	r2,zero,2dfc <__adddf3+0x860>
    2b14:	4984b03a 	or	r2,r9,r6
    2b18:	103ebf26 	beq	r2,zero,2618 <_gp+0xffff41f8>
    2b1c:	8985883a 	add	r2,r17,r6
    2b20:	4247883a 	add	r3,r8,r9
    2b24:	1451803a 	cmpltu	r8,r2,r17
    2b28:	40d1883a 	add	r8,r8,r3
    2b2c:	40c0202c 	andhi	r3,r8,128
    2b30:	1023883a 	mov	r17,r2
    2b34:	183f1a26 	beq	r3,zero,27a0 <_gp+0xffff4380>
    2b38:	00bfe034 	movhi	r2,65408
    2b3c:	10bfffc4 	addi	r2,r2,-1
    2b40:	2021883a 	mov	r16,r4
    2b44:	4090703a 	and	r8,r8,r2
    2b48:	003eb306 	br	2618 <_gp+0xffff41f8>
    2b4c:	4444b03a 	or	r2,r8,r17
    2b50:	8000291e 	bne	r16,zero,2bf8 <__adddf3+0x65c>
    2b54:	10004b1e 	bne	r2,zero,2c84 <__adddf3+0x6e8>
    2b58:	4990b03a 	or	r8,r9,r6
    2b5c:	40008b26 	beq	r8,zero,2d8c <__adddf3+0x7f0>
    2b60:	4811883a 	mov	r8,r9
    2b64:	3023883a 	mov	r17,r6
    2b68:	3825883a 	mov	r18,r7
    2b6c:	003eaa06 	br	2618 <_gp+0xffff41f8>
    2b70:	1021883a 	mov	r16,r2
    2b74:	0011883a 	mov	r8,zero
    2b78:	0005883a 	mov	r2,zero
    2b7c:	003f0f06 	br	27bc <_gp+0xffff439c>
    2b80:	217ff804 	addi	r5,r4,-32
    2b84:	00800804 	movi	r2,32
    2b88:	494ad83a 	srl	r5,r9,r5
    2b8c:	20807d26 	beq	r4,r2,2d84 <__adddf3+0x7e8>
    2b90:	00801004 	movi	r2,64
    2b94:	1109c83a 	sub	r4,r2,r4
    2b98:	4912983a 	sll	r9,r9,r4
    2b9c:	498cb03a 	or	r6,r9,r6
    2ba0:	300cc03a 	cmpne	r6,r6,zero
    2ba4:	298ab03a 	or	r5,r5,r6
    2ba8:	0013883a 	mov	r9,zero
    2bac:	003f1506 	br	2804 <_gp+0xffff43e4>
    2bb0:	0101ffc4 	movi	r4,2047
    2bb4:	113f9a1e 	bne	r2,r4,2a20 <_gp+0xffff4600>
    2bb8:	4811883a 	mov	r8,r9
    2bbc:	3023883a 	mov	r17,r6
    2bc0:	1021883a 	mov	r16,r2
    2bc4:	3825883a 	mov	r18,r7
    2bc8:	003e9306 	br	2618 <_gp+0xffff41f8>
    2bcc:	8000161e 	bne	r16,zero,2c28 <__adddf3+0x68c>
    2bd0:	444ab03a 	or	r5,r8,r17
    2bd4:	28005126 	beq	r5,zero,2d1c <__adddf3+0x780>
    2bd8:	0108303a 	nor	r4,zero,r4
    2bdc:	20004d1e 	bne	r4,zero,2d14 <__adddf3+0x778>
    2be0:	89a3883a 	add	r17,r17,r6
    2be4:	4253883a 	add	r9,r8,r9
    2be8:	898d803a 	cmpltu	r6,r17,r6
    2bec:	3251883a 	add	r8,r6,r9
    2bf0:	1021883a 	mov	r16,r2
    2bf4:	003f0806 	br	2818 <_gp+0xffff43f8>
    2bf8:	1000301e 	bne	r2,zero,2cbc <__adddf3+0x720>
    2bfc:	4984b03a 	or	r2,r9,r6
    2c00:	10007126 	beq	r2,zero,2dc8 <__adddf3+0x82c>
    2c04:	4811883a 	mov	r8,r9
    2c08:	3023883a 	mov	r17,r6
    2c0c:	3825883a 	mov	r18,r7
    2c10:	0401ffc4 	movi	r16,2047
    2c14:	003e8006 	br	2618 <_gp+0xffff41f8>
    2c18:	4462b03a 	or	r17,r8,r17
    2c1c:	8822c03a 	cmpne	r17,r17,zero
    2c20:	0007883a 	mov	r3,zero
    2c24:	003f8b06 	br	2a54 <_gp+0xffff4634>
    2c28:	0141ffc4 	movi	r5,2047
    2c2c:	11403b26 	beq	r2,r5,2d1c <__adddf3+0x780>
    2c30:	0109c83a 	sub	r4,zero,r4
    2c34:	42002034 	orhi	r8,r8,128
    2c38:	01400e04 	movi	r5,56
    2c3c:	29006716 	blt	r5,r4,2ddc <__adddf3+0x840>
    2c40:	014007c4 	movi	r5,31
    2c44:	29007016 	blt	r5,r4,2e08 <__adddf3+0x86c>
    2c48:	01400804 	movi	r5,32
    2c4c:	290bc83a 	sub	r5,r5,r4
    2c50:	4154983a 	sll	r10,r8,r5
    2c54:	890ed83a 	srl	r7,r17,r4
    2c58:	894a983a 	sll	r5,r17,r5
    2c5c:	4108d83a 	srl	r4,r8,r4
    2c60:	51e2b03a 	or	r17,r10,r7
    2c64:	280ac03a 	cmpne	r5,r5,zero
    2c68:	8962b03a 	or	r17,r17,r5
    2c6c:	89a3883a 	add	r17,r17,r6
    2c70:	2253883a 	add	r9,r4,r9
    2c74:	898d803a 	cmpltu	r6,r17,r6
    2c78:	3251883a 	add	r8,r6,r9
    2c7c:	1021883a 	mov	r16,r2
    2c80:	003ee506 	br	2818 <_gp+0xffff43f8>
    2c84:	4984b03a 	or	r2,r9,r6
    2c88:	103e6326 	beq	r2,zero,2618 <_gp+0xffff41f8>
    2c8c:	8987c83a 	sub	r3,r17,r6
    2c90:	88c9803a 	cmpltu	r4,r17,r3
    2c94:	4245c83a 	sub	r2,r8,r9
    2c98:	1105c83a 	sub	r2,r2,r4
    2c9c:	1100202c 	andhi	r4,r2,128
    2ca0:	203ebb26 	beq	r4,zero,2790 <_gp+0xffff4370>
    2ca4:	3463c83a 	sub	r17,r6,r17
    2ca8:	4a07c83a 	sub	r3,r9,r8
    2cac:	344d803a 	cmpltu	r6,r6,r17
    2cb0:	1991c83a 	sub	r8,r3,r6
    2cb4:	3825883a 	mov	r18,r7
    2cb8:	003e5706 	br	2618 <_gp+0xffff41f8>
    2cbc:	4984b03a 	or	r2,r9,r6
    2cc0:	10002e26 	beq	r2,zero,2d7c <__adddf3+0x7e0>
    2cc4:	4004d0fa 	srli	r2,r8,3
    2cc8:	8822d0fa 	srli	r17,r17,3
    2ccc:	4010977a 	slli	r8,r8,29
    2cd0:	10c0022c 	andhi	r3,r2,8
    2cd4:	4462b03a 	or	r17,r8,r17
    2cd8:	18000826 	beq	r3,zero,2cfc <__adddf3+0x760>
    2cdc:	4808d0fa 	srli	r4,r9,3
    2ce0:	20c0022c 	andhi	r3,r4,8
    2ce4:	1800051e 	bne	r3,zero,2cfc <__adddf3+0x760>
    2ce8:	300cd0fa 	srli	r6,r6,3
    2cec:	4806977a 	slli	r3,r9,29
    2cf0:	2005883a 	mov	r2,r4
    2cf4:	3825883a 	mov	r18,r7
    2cf8:	19a2b03a 	or	r17,r3,r6
    2cfc:	8810d77a 	srli	r8,r17,29
    2d00:	100490fa 	slli	r2,r2,3
    2d04:	882290fa 	slli	r17,r17,3
    2d08:	0401ffc4 	movi	r16,2047
    2d0c:	4090b03a 	or	r8,r8,r2
    2d10:	003e4106 	br	2618 <_gp+0xffff41f8>
    2d14:	0141ffc4 	movi	r5,2047
    2d18:	117fc71e 	bne	r2,r5,2c38 <_gp+0xffff4818>
    2d1c:	4811883a 	mov	r8,r9
    2d20:	3023883a 	mov	r17,r6
    2d24:	1021883a 	mov	r16,r2
    2d28:	003e3b06 	br	2618 <_gp+0xffff41f8>
    2d2c:	10002f26 	beq	r2,zero,2dec <__adddf3+0x850>
    2d30:	4984b03a 	or	r2,r9,r6
    2d34:	10001126 	beq	r2,zero,2d7c <__adddf3+0x7e0>
    2d38:	4004d0fa 	srli	r2,r8,3
    2d3c:	8822d0fa 	srli	r17,r17,3
    2d40:	4010977a 	slli	r8,r8,29
    2d44:	10c0022c 	andhi	r3,r2,8
    2d48:	4462b03a 	or	r17,r8,r17
    2d4c:	183feb26 	beq	r3,zero,2cfc <_gp+0xffff48dc>
    2d50:	4808d0fa 	srli	r4,r9,3
    2d54:	20c0022c 	andhi	r3,r4,8
    2d58:	183fe81e 	bne	r3,zero,2cfc <_gp+0xffff48dc>
    2d5c:	300cd0fa 	srli	r6,r6,3
    2d60:	4806977a 	slli	r3,r9,29
    2d64:	2005883a 	mov	r2,r4
    2d68:	19a2b03a 	or	r17,r3,r6
    2d6c:	003fe306 	br	2cfc <_gp+0xffff48dc>
    2d70:	0011883a 	mov	r8,zero
    2d74:	0005883a 	mov	r2,zero
    2d78:	003e3f06 	br	2678 <_gp+0xffff4258>
    2d7c:	0401ffc4 	movi	r16,2047
    2d80:	003e2506 	br	2618 <_gp+0xffff41f8>
    2d84:	0013883a 	mov	r9,zero
    2d88:	003f8406 	br	2b9c <_gp+0xffff477c>
    2d8c:	0005883a 	mov	r2,zero
    2d90:	0007883a 	mov	r3,zero
    2d94:	003e8906 	br	27bc <_gp+0xffff439c>
    2d98:	197ff804 	addi	r5,r3,-32
    2d9c:	01000804 	movi	r4,32
    2da0:	414ad83a 	srl	r5,r8,r5
    2da4:	19002426 	beq	r3,r4,2e38 <__adddf3+0x89c>
    2da8:	01001004 	movi	r4,64
    2dac:	20c7c83a 	sub	r3,r4,r3
    2db0:	40c6983a 	sll	r3,r8,r3
    2db4:	1c46b03a 	or	r3,r3,r17
    2db8:	1806c03a 	cmpne	r3,r3,zero
    2dbc:	28e2b03a 	or	r17,r5,r3
    2dc0:	0007883a 	mov	r3,zero
    2dc4:	003f2306 	br	2a54 <_gp+0xffff4634>
    2dc8:	0007883a 	mov	r3,zero
    2dcc:	5811883a 	mov	r8,r11
    2dd0:	00bfffc4 	movi	r2,-1
    2dd4:	0401ffc4 	movi	r16,2047
    2dd8:	003e7806 	br	27bc <_gp+0xffff439c>
    2ddc:	4462b03a 	or	r17,r8,r17
    2de0:	8822c03a 	cmpne	r17,r17,zero
    2de4:	0009883a 	mov	r4,zero
    2de8:	003fa006 	br	2c6c <_gp+0xffff484c>
    2dec:	4811883a 	mov	r8,r9
    2df0:	3023883a 	mov	r17,r6
    2df4:	0401ffc4 	movi	r16,2047
    2df8:	003e0706 	br	2618 <_gp+0xffff41f8>
    2dfc:	4811883a 	mov	r8,r9
    2e00:	3023883a 	mov	r17,r6
    2e04:	003e0406 	br	2618 <_gp+0xffff41f8>
    2e08:	21fff804 	addi	r7,r4,-32
    2e0c:	01400804 	movi	r5,32
    2e10:	41ced83a 	srl	r7,r8,r7
    2e14:	21400a26 	beq	r4,r5,2e40 <__adddf3+0x8a4>
    2e18:	01401004 	movi	r5,64
    2e1c:	2909c83a 	sub	r4,r5,r4
    2e20:	4108983a 	sll	r4,r8,r4
    2e24:	2448b03a 	or	r4,r4,r17
    2e28:	2008c03a 	cmpne	r4,r4,zero
    2e2c:	3922b03a 	or	r17,r7,r4
    2e30:	0009883a 	mov	r4,zero
    2e34:	003f8d06 	br	2c6c <_gp+0xffff484c>
    2e38:	0007883a 	mov	r3,zero
    2e3c:	003fdd06 	br	2db4 <_gp+0xffff4994>
    2e40:	0009883a 	mov	r4,zero
    2e44:	003ff706 	br	2e24 <_gp+0xffff4a04>

00002e48 <__divdf3>:
    2e48:	defff204 	addi	sp,sp,-56
    2e4c:	dd400915 	stw	r21,36(sp)
    2e50:	282ad53a 	srli	r21,r5,20
    2e54:	dd000815 	stw	r20,32(sp)
    2e58:	2828d7fa 	srli	r20,r5,31
    2e5c:	dc000415 	stw	r16,16(sp)
    2e60:	04000434 	movhi	r16,16
    2e64:	df000c15 	stw	fp,48(sp)
    2e68:	843fffc4 	addi	r16,r16,-1
    2e6c:	dfc00d15 	stw	ra,52(sp)
    2e70:	ddc00b15 	stw	r23,44(sp)
    2e74:	dd800a15 	stw	r22,40(sp)
    2e78:	dcc00715 	stw	r19,28(sp)
    2e7c:	dc800615 	stw	r18,24(sp)
    2e80:	dc400515 	stw	r17,20(sp)
    2e84:	ad41ffcc 	andi	r21,r21,2047
    2e88:	2c20703a 	and	r16,r5,r16
    2e8c:	a7003fcc 	andi	fp,r20,255
    2e90:	a8006126 	beq	r21,zero,3018 <__divdf3+0x1d0>
    2e94:	0081ffc4 	movi	r2,2047
    2e98:	2025883a 	mov	r18,r4
    2e9c:	a8803726 	beq	r21,r2,2f7c <__divdf3+0x134>
    2ea0:	80800434 	orhi	r2,r16,16
    2ea4:	100490fa 	slli	r2,r2,3
    2ea8:	2020d77a 	srli	r16,r4,29
    2eac:	202490fa 	slli	r18,r4,3
    2eb0:	ad7f0044 	addi	r21,r21,-1023
    2eb4:	80a0b03a 	or	r16,r16,r2
    2eb8:	0027883a 	mov	r19,zero
    2ebc:	0013883a 	mov	r9,zero
    2ec0:	3804d53a 	srli	r2,r7,20
    2ec4:	382cd7fa 	srli	r22,r7,31
    2ec8:	04400434 	movhi	r17,16
    2ecc:	8c7fffc4 	addi	r17,r17,-1
    2ed0:	1081ffcc 	andi	r2,r2,2047
    2ed4:	3011883a 	mov	r8,r6
    2ed8:	3c62703a 	and	r17,r7,r17
    2edc:	b5c03fcc 	andi	r23,r22,255
    2ee0:	10006c26 	beq	r2,zero,3094 <__divdf3+0x24c>
    2ee4:	00c1ffc4 	movi	r3,2047
    2ee8:	10c06426 	beq	r2,r3,307c <__divdf3+0x234>
    2eec:	88c00434 	orhi	r3,r17,16
    2ef0:	180690fa 	slli	r3,r3,3
    2ef4:	3022d77a 	srli	r17,r6,29
    2ef8:	301090fa 	slli	r8,r6,3
    2efc:	10bf0044 	addi	r2,r2,-1023
    2f00:	88e2b03a 	or	r17,r17,r3
    2f04:	000f883a 	mov	r7,zero
    2f08:	a58cf03a 	xor	r6,r20,r22
    2f0c:	3cc8b03a 	or	r4,r7,r19
    2f10:	a8abc83a 	sub	r21,r21,r2
    2f14:	008003c4 	movi	r2,15
    2f18:	3007883a 	mov	r3,r6
    2f1c:	34c03fcc 	andi	r19,r6,255
    2f20:	11009036 	bltu	r2,r4,3164 <__divdf3+0x31c>
    2f24:	200890ba 	slli	r4,r4,2
    2f28:	00800034 	movhi	r2,0
    2f2c:	108bcf04 	addi	r2,r2,12092
    2f30:	2089883a 	add	r4,r4,r2
    2f34:	20800017 	ldw	r2,0(r4)
    2f38:	1000683a 	jmp	r2
    2f3c:	00003164 	muli	zero,zero,197
    2f40:	00002fb4 	movhi	zero,190
    2f44:	00003154 	movui	zero,197
    2f48:	00002fa8 	cmpgeui	zero,zero,190
    2f4c:	00003154 	movui	zero,197
    2f50:	00003128 	cmpgeui	zero,zero,196
    2f54:	00003154 	movui	zero,197
    2f58:	00002fa8 	cmpgeui	zero,zero,190
    2f5c:	00002fb4 	movhi	zero,190
    2f60:	00002fb4 	movhi	zero,190
    2f64:	00003128 	cmpgeui	zero,zero,196
    2f68:	00002fa8 	cmpgeui	zero,zero,190
    2f6c:	00002f98 	cmpnei	zero,zero,190
    2f70:	00002f98 	cmpnei	zero,zero,190
    2f74:	00002f98 	cmpnei	zero,zero,190
    2f78:	00003448 	cmpgei	zero,zero,209
    2f7c:	2404b03a 	or	r2,r4,r16
    2f80:	1000661e 	bne	r2,zero,311c <__divdf3+0x2d4>
    2f84:	04c00204 	movi	r19,8
    2f88:	0021883a 	mov	r16,zero
    2f8c:	0025883a 	mov	r18,zero
    2f90:	02400084 	movi	r9,2
    2f94:	003fca06 	br	2ec0 <_gp+0xffff4aa0>
    2f98:	8023883a 	mov	r17,r16
    2f9c:	9011883a 	mov	r8,r18
    2fa0:	e02f883a 	mov	r23,fp
    2fa4:	480f883a 	mov	r7,r9
    2fa8:	00800084 	movi	r2,2
    2fac:	3881311e 	bne	r7,r2,3474 <__divdf3+0x62c>
    2fb0:	b827883a 	mov	r19,r23
    2fb4:	98c0004c 	andi	r3,r19,1
    2fb8:	0081ffc4 	movi	r2,2047
    2fbc:	000b883a 	mov	r5,zero
    2fc0:	0025883a 	mov	r18,zero
    2fc4:	1004953a 	slli	r2,r2,20
    2fc8:	18c03fcc 	andi	r3,r3,255
    2fcc:	04400434 	movhi	r17,16
    2fd0:	8c7fffc4 	addi	r17,r17,-1
    2fd4:	180697fa 	slli	r3,r3,31
    2fd8:	2c4a703a 	and	r5,r5,r17
    2fdc:	288ab03a 	or	r5,r5,r2
    2fe0:	28c6b03a 	or	r3,r5,r3
    2fe4:	9005883a 	mov	r2,r18
    2fe8:	dfc00d17 	ldw	ra,52(sp)
    2fec:	df000c17 	ldw	fp,48(sp)
    2ff0:	ddc00b17 	ldw	r23,44(sp)
    2ff4:	dd800a17 	ldw	r22,40(sp)
    2ff8:	dd400917 	ldw	r21,36(sp)
    2ffc:	dd000817 	ldw	r20,32(sp)
    3000:	dcc00717 	ldw	r19,28(sp)
    3004:	dc800617 	ldw	r18,24(sp)
    3008:	dc400517 	ldw	r17,20(sp)
    300c:	dc000417 	ldw	r16,16(sp)
    3010:	dec00e04 	addi	sp,sp,56
    3014:	f800283a 	ret
    3018:	2404b03a 	or	r2,r4,r16
    301c:	2027883a 	mov	r19,r4
    3020:	10003926 	beq	r2,zero,3108 <__divdf3+0x2c0>
    3024:	80012e26 	beq	r16,zero,34e0 <__divdf3+0x698>
    3028:	8009883a 	mov	r4,r16
    302c:	d9800315 	stw	r6,12(sp)
    3030:	d9c00215 	stw	r7,8(sp)
    3034:	0004ba00 	call	4ba0 <__clzsi2>
    3038:	d9800317 	ldw	r6,12(sp)
    303c:	d9c00217 	ldw	r7,8(sp)
    3040:	113ffd44 	addi	r4,r2,-11
    3044:	00c00704 	movi	r3,28
    3048:	19012116 	blt	r3,r4,34d0 <__divdf3+0x688>
    304c:	00c00744 	movi	r3,29
    3050:	147ffe04 	addi	r17,r2,-8
    3054:	1907c83a 	sub	r3,r3,r4
    3058:	8460983a 	sll	r16,r16,r17
    305c:	98c6d83a 	srl	r3,r19,r3
    3060:	9c64983a 	sll	r18,r19,r17
    3064:	1c20b03a 	or	r16,r3,r16
    3068:	1080fcc4 	addi	r2,r2,1011
    306c:	00abc83a 	sub	r21,zero,r2
    3070:	0027883a 	mov	r19,zero
    3074:	0013883a 	mov	r9,zero
    3078:	003f9106 	br	2ec0 <_gp+0xffff4aa0>
    307c:	3446b03a 	or	r3,r6,r17
    3080:	18001f1e 	bne	r3,zero,3100 <__divdf3+0x2b8>
    3084:	0023883a 	mov	r17,zero
    3088:	0011883a 	mov	r8,zero
    308c:	01c00084 	movi	r7,2
    3090:	003f9d06 	br	2f08 <_gp+0xffff4ae8>
    3094:	3446b03a 	or	r3,r6,r17
    3098:	18001526 	beq	r3,zero,30f0 <__divdf3+0x2a8>
    309c:	88011b26 	beq	r17,zero,350c <__divdf3+0x6c4>
    30a0:	8809883a 	mov	r4,r17
    30a4:	d9800315 	stw	r6,12(sp)
    30a8:	da400115 	stw	r9,4(sp)
    30ac:	0004ba00 	call	4ba0 <__clzsi2>
    30b0:	d9800317 	ldw	r6,12(sp)
    30b4:	da400117 	ldw	r9,4(sp)
    30b8:	113ffd44 	addi	r4,r2,-11
    30bc:	00c00704 	movi	r3,28
    30c0:	19010e16 	blt	r3,r4,34fc <__divdf3+0x6b4>
    30c4:	00c00744 	movi	r3,29
    30c8:	123ffe04 	addi	r8,r2,-8
    30cc:	1907c83a 	sub	r3,r3,r4
    30d0:	8a22983a 	sll	r17,r17,r8
    30d4:	30c6d83a 	srl	r3,r6,r3
    30d8:	3210983a 	sll	r8,r6,r8
    30dc:	1c62b03a 	or	r17,r3,r17
    30e0:	1080fcc4 	addi	r2,r2,1011
    30e4:	0085c83a 	sub	r2,zero,r2
    30e8:	000f883a 	mov	r7,zero
    30ec:	003f8606 	br	2f08 <_gp+0xffff4ae8>
    30f0:	0023883a 	mov	r17,zero
    30f4:	0011883a 	mov	r8,zero
    30f8:	01c00044 	movi	r7,1
    30fc:	003f8206 	br	2f08 <_gp+0xffff4ae8>
    3100:	01c000c4 	movi	r7,3
    3104:	003f8006 	br	2f08 <_gp+0xffff4ae8>
    3108:	04c00104 	movi	r19,4
    310c:	0021883a 	mov	r16,zero
    3110:	0025883a 	mov	r18,zero
    3114:	02400044 	movi	r9,1
    3118:	003f6906 	br	2ec0 <_gp+0xffff4aa0>
    311c:	04c00304 	movi	r19,12
    3120:	024000c4 	movi	r9,3
    3124:	003f6606 	br	2ec0 <_gp+0xffff4aa0>
    3128:	01400434 	movhi	r5,16
    312c:	0007883a 	mov	r3,zero
    3130:	297fffc4 	addi	r5,r5,-1
    3134:	04bfffc4 	movi	r18,-1
    3138:	0081ffc4 	movi	r2,2047
    313c:	003fa106 	br	2fc4 <_gp+0xffff4ba4>
    3140:	00c00044 	movi	r3,1
    3144:	1887c83a 	sub	r3,r3,r2
    3148:	01000e04 	movi	r4,56
    314c:	20c1210e 	bge	r4,r3,35d4 <__divdf3+0x78c>
    3150:	98c0004c 	andi	r3,r19,1
    3154:	0005883a 	mov	r2,zero
    3158:	000b883a 	mov	r5,zero
    315c:	0025883a 	mov	r18,zero
    3160:	003f9806 	br	2fc4 <_gp+0xffff4ba4>
    3164:	8c00fd36 	bltu	r17,r16,355c <__divdf3+0x714>
    3168:	8440fb26 	beq	r16,r17,3558 <__divdf3+0x710>
    316c:	8007883a 	mov	r3,r16
    3170:	ad7fffc4 	addi	r21,r21,-1
    3174:	0021883a 	mov	r16,zero
    3178:	4004d63a 	srli	r2,r8,24
    317c:	8822923a 	slli	r17,r17,8
    3180:	1809883a 	mov	r4,r3
    3184:	402c923a 	slli	r22,r8,8
    3188:	88b8b03a 	or	fp,r17,r2
    318c:	e028d43a 	srli	r20,fp,16
    3190:	d8c00015 	stw	r3,0(sp)
    3194:	e5ffffcc 	andi	r23,fp,65535
    3198:	a00b883a 	mov	r5,r20
    319c:	0004cfc0 	call	4cfc <__udivsi3>
    31a0:	d8c00017 	ldw	r3,0(sp)
    31a4:	a00b883a 	mov	r5,r20
    31a8:	d8800315 	stw	r2,12(sp)
    31ac:	1809883a 	mov	r4,r3
    31b0:	0004d600 	call	4d60 <__umodsi3>
    31b4:	d9800317 	ldw	r6,12(sp)
    31b8:	1006943a 	slli	r3,r2,16
    31bc:	9004d43a 	srli	r2,r18,16
    31c0:	b9a3383a 	mul	r17,r23,r6
    31c4:	10c4b03a 	or	r2,r2,r3
    31c8:	1440062e 	bgeu	r2,r17,31e4 <__divdf3+0x39c>
    31cc:	1705883a 	add	r2,r2,fp
    31d0:	30ffffc4 	addi	r3,r6,-1
    31d4:	1700ee36 	bltu	r2,fp,3590 <__divdf3+0x748>
    31d8:	1440ed2e 	bgeu	r2,r17,3590 <__divdf3+0x748>
    31dc:	31bfff84 	addi	r6,r6,-2
    31e0:	1705883a 	add	r2,r2,fp
    31e4:	1463c83a 	sub	r17,r2,r17
    31e8:	a00b883a 	mov	r5,r20
    31ec:	8809883a 	mov	r4,r17
    31f0:	d9800315 	stw	r6,12(sp)
    31f4:	0004cfc0 	call	4cfc <__udivsi3>
    31f8:	a00b883a 	mov	r5,r20
    31fc:	8809883a 	mov	r4,r17
    3200:	d8800215 	stw	r2,8(sp)
    3204:	0004d600 	call	4d60 <__umodsi3>
    3208:	d9c00217 	ldw	r7,8(sp)
    320c:	1004943a 	slli	r2,r2,16
    3210:	94bfffcc 	andi	r18,r18,65535
    3214:	b9d1383a 	mul	r8,r23,r7
    3218:	90a4b03a 	or	r18,r18,r2
    321c:	d9800317 	ldw	r6,12(sp)
    3220:	9200062e 	bgeu	r18,r8,323c <__divdf3+0x3f4>
    3224:	9725883a 	add	r18,r18,fp
    3228:	38bfffc4 	addi	r2,r7,-1
    322c:	9700d636 	bltu	r18,fp,3588 <__divdf3+0x740>
    3230:	9200d52e 	bgeu	r18,r8,3588 <__divdf3+0x740>
    3234:	39ffff84 	addi	r7,r7,-2
    3238:	9725883a 	add	r18,r18,fp
    323c:	3004943a 	slli	r2,r6,16
    3240:	b012d43a 	srli	r9,r22,16
    3244:	b1bfffcc 	andi	r6,r22,65535
    3248:	11e2b03a 	or	r17,r2,r7
    324c:	8806d43a 	srli	r3,r17,16
    3250:	893fffcc 	andi	r4,r17,65535
    3254:	218b383a 	mul	r5,r4,r6
    3258:	30c5383a 	mul	r2,r6,r3
    325c:	2249383a 	mul	r4,r4,r9
    3260:	280ed43a 	srli	r7,r5,16
    3264:	9225c83a 	sub	r18,r18,r8
    3268:	2089883a 	add	r4,r4,r2
    326c:	3909883a 	add	r4,r7,r4
    3270:	1a47383a 	mul	r3,r3,r9
    3274:	2080022e 	bgeu	r4,r2,3280 <__divdf3+0x438>
    3278:	00800074 	movhi	r2,1
    327c:	1887883a 	add	r3,r3,r2
    3280:	2004d43a 	srli	r2,r4,16
    3284:	2008943a 	slli	r4,r4,16
    3288:	297fffcc 	andi	r5,r5,65535
    328c:	10c7883a 	add	r3,r2,r3
    3290:	2149883a 	add	r4,r4,r5
    3294:	90c0a536 	bltu	r18,r3,352c <__divdf3+0x6e4>
    3298:	90c0bf26 	beq	r18,r3,3598 <__divdf3+0x750>
    329c:	90c7c83a 	sub	r3,r18,r3
    32a0:	810fc83a 	sub	r7,r16,r4
    32a4:	81e5803a 	cmpltu	r18,r16,r7
    32a8:	1ca5c83a 	sub	r18,r3,r18
    32ac:	e480c126 	beq	fp,r18,35b4 <__divdf3+0x76c>
    32b0:	a00b883a 	mov	r5,r20
    32b4:	9009883a 	mov	r4,r18
    32b8:	d9800315 	stw	r6,12(sp)
    32bc:	d9c00215 	stw	r7,8(sp)
    32c0:	da400115 	stw	r9,4(sp)
    32c4:	0004cfc0 	call	4cfc <__udivsi3>
    32c8:	a00b883a 	mov	r5,r20
    32cc:	9009883a 	mov	r4,r18
    32d0:	d8800015 	stw	r2,0(sp)
    32d4:	0004d600 	call	4d60 <__umodsi3>
    32d8:	d9c00217 	ldw	r7,8(sp)
    32dc:	da000017 	ldw	r8,0(sp)
    32e0:	1006943a 	slli	r3,r2,16
    32e4:	3804d43a 	srli	r2,r7,16
    32e8:	ba21383a 	mul	r16,r23,r8
    32ec:	d9800317 	ldw	r6,12(sp)
    32f0:	10c4b03a 	or	r2,r2,r3
    32f4:	da400117 	ldw	r9,4(sp)
    32f8:	1400062e 	bgeu	r2,r16,3314 <__divdf3+0x4cc>
    32fc:	1705883a 	add	r2,r2,fp
    3300:	40ffffc4 	addi	r3,r8,-1
    3304:	1700ad36 	bltu	r2,fp,35bc <__divdf3+0x774>
    3308:	1400ac2e 	bgeu	r2,r16,35bc <__divdf3+0x774>
    330c:	423fff84 	addi	r8,r8,-2
    3310:	1705883a 	add	r2,r2,fp
    3314:	1421c83a 	sub	r16,r2,r16
    3318:	a00b883a 	mov	r5,r20
    331c:	8009883a 	mov	r4,r16
    3320:	d9800315 	stw	r6,12(sp)
    3324:	d9c00215 	stw	r7,8(sp)
    3328:	da000015 	stw	r8,0(sp)
    332c:	da400115 	stw	r9,4(sp)
    3330:	0004cfc0 	call	4cfc <__udivsi3>
    3334:	8009883a 	mov	r4,r16
    3338:	a00b883a 	mov	r5,r20
    333c:	1025883a 	mov	r18,r2
    3340:	0004d600 	call	4d60 <__umodsi3>
    3344:	d9c00217 	ldw	r7,8(sp)
    3348:	1004943a 	slli	r2,r2,16
    334c:	bcaf383a 	mul	r23,r23,r18
    3350:	393fffcc 	andi	r4,r7,65535
    3354:	2088b03a 	or	r4,r4,r2
    3358:	d9800317 	ldw	r6,12(sp)
    335c:	da000017 	ldw	r8,0(sp)
    3360:	da400117 	ldw	r9,4(sp)
    3364:	25c0062e 	bgeu	r4,r23,3380 <__divdf3+0x538>
    3368:	2709883a 	add	r4,r4,fp
    336c:	90bfffc4 	addi	r2,r18,-1
    3370:	27009436 	bltu	r4,fp,35c4 <__divdf3+0x77c>
    3374:	25c0932e 	bgeu	r4,r23,35c4 <__divdf3+0x77c>
    3378:	94bfff84 	addi	r18,r18,-2
    337c:	2709883a 	add	r4,r4,fp
    3380:	4004943a 	slli	r2,r8,16
    3384:	25efc83a 	sub	r23,r4,r23
    3388:	1490b03a 	or	r8,r2,r18
    338c:	4008d43a 	srli	r4,r8,16
    3390:	40ffffcc 	andi	r3,r8,65535
    3394:	30c5383a 	mul	r2,r6,r3
    3398:	1a47383a 	mul	r3,r3,r9
    339c:	310d383a 	mul	r6,r6,r4
    33a0:	100ad43a 	srli	r5,r2,16
    33a4:	4913383a 	mul	r9,r9,r4
    33a8:	1987883a 	add	r3,r3,r6
    33ac:	28c7883a 	add	r3,r5,r3
    33b0:	1980022e 	bgeu	r3,r6,33bc <__divdf3+0x574>
    33b4:	01000074 	movhi	r4,1
    33b8:	4913883a 	add	r9,r9,r4
    33bc:	1808d43a 	srli	r4,r3,16
    33c0:	1806943a 	slli	r3,r3,16
    33c4:	10bfffcc 	andi	r2,r2,65535
    33c8:	2253883a 	add	r9,r4,r9
    33cc:	1887883a 	add	r3,r3,r2
    33d0:	ba403836 	bltu	r23,r9,34b4 <__divdf3+0x66c>
    33d4:	ba403626 	beq	r23,r9,34b0 <__divdf3+0x668>
    33d8:	42000054 	ori	r8,r8,1
    33dc:	a880ffc4 	addi	r2,r21,1023
    33e0:	00bf570e 	bge	zero,r2,3140 <_gp+0xffff4d20>
    33e4:	40c001cc 	andi	r3,r8,7
    33e8:	18000726 	beq	r3,zero,3408 <__divdf3+0x5c0>
    33ec:	40c003cc 	andi	r3,r8,15
    33f0:	01000104 	movi	r4,4
    33f4:	19000426 	beq	r3,r4,3408 <__divdf3+0x5c0>
    33f8:	4107883a 	add	r3,r8,r4
    33fc:	1a11803a 	cmpltu	r8,r3,r8
    3400:	8a23883a 	add	r17,r17,r8
    3404:	1811883a 	mov	r8,r3
    3408:	88c0402c 	andhi	r3,r17,256
    340c:	18000426 	beq	r3,zero,3420 <__divdf3+0x5d8>
    3410:	00ffc034 	movhi	r3,65280
    3414:	18ffffc4 	addi	r3,r3,-1
    3418:	a8810004 	addi	r2,r21,1024
    341c:	88e2703a 	and	r17,r17,r3
    3420:	00c1ff84 	movi	r3,2046
    3424:	18bee316 	blt	r3,r2,2fb4 <_gp+0xffff4b94>
    3428:	8824977a 	slli	r18,r17,29
    342c:	4010d0fa 	srli	r8,r8,3
    3430:	8822927a 	slli	r17,r17,9
    3434:	1081ffcc 	andi	r2,r2,2047
    3438:	9224b03a 	or	r18,r18,r8
    343c:	880ad33a 	srli	r5,r17,12
    3440:	98c0004c 	andi	r3,r19,1
    3444:	003edf06 	br	2fc4 <_gp+0xffff4ba4>
    3448:	8080022c 	andhi	r2,r16,8
    344c:	10001226 	beq	r2,zero,3498 <__divdf3+0x650>
    3450:	8880022c 	andhi	r2,r17,8
    3454:	1000101e 	bne	r2,zero,3498 <__divdf3+0x650>
    3458:	00800434 	movhi	r2,16
    345c:	89400234 	orhi	r5,r17,8
    3460:	10bfffc4 	addi	r2,r2,-1
    3464:	b007883a 	mov	r3,r22
    3468:	288a703a 	and	r5,r5,r2
    346c:	4025883a 	mov	r18,r8
    3470:	003f3106 	br	3138 <_gp+0xffff4d18>
    3474:	008000c4 	movi	r2,3
    3478:	3880a626 	beq	r7,r2,3714 <__divdf3+0x8cc>
    347c:	00800044 	movi	r2,1
    3480:	3880521e 	bne	r7,r2,35cc <__divdf3+0x784>
    3484:	b807883a 	mov	r3,r23
    3488:	0005883a 	mov	r2,zero
    348c:	000b883a 	mov	r5,zero
    3490:	0025883a 	mov	r18,zero
    3494:	003ecb06 	br	2fc4 <_gp+0xffff4ba4>
    3498:	00800434 	movhi	r2,16
    349c:	81400234 	orhi	r5,r16,8
    34a0:	10bfffc4 	addi	r2,r2,-1
    34a4:	a007883a 	mov	r3,r20
    34a8:	288a703a 	and	r5,r5,r2
    34ac:	003f2206 	br	3138 <_gp+0xffff4d18>
    34b0:	183fca26 	beq	r3,zero,33dc <_gp+0xffff4fbc>
    34b4:	e5ef883a 	add	r23,fp,r23
    34b8:	40bfffc4 	addi	r2,r8,-1
    34bc:	bf00392e 	bgeu	r23,fp,35a4 <__divdf3+0x75c>
    34c0:	1011883a 	mov	r8,r2
    34c4:	ba7fc41e 	bne	r23,r9,33d8 <_gp+0xffff4fb8>
    34c8:	b0ffc31e 	bne	r22,r3,33d8 <_gp+0xffff4fb8>
    34cc:	003fc306 	br	33dc <_gp+0xffff4fbc>
    34d0:	143ff604 	addi	r16,r2,-40
    34d4:	9c20983a 	sll	r16,r19,r16
    34d8:	0025883a 	mov	r18,zero
    34dc:	003ee206 	br	3068 <_gp+0xffff4c48>
    34e0:	d9800315 	stw	r6,12(sp)
    34e4:	d9c00215 	stw	r7,8(sp)
    34e8:	0004ba00 	call	4ba0 <__clzsi2>
    34ec:	10800804 	addi	r2,r2,32
    34f0:	d9c00217 	ldw	r7,8(sp)
    34f4:	d9800317 	ldw	r6,12(sp)
    34f8:	003ed106 	br	3040 <_gp+0xffff4c20>
    34fc:	147ff604 	addi	r17,r2,-40
    3500:	3462983a 	sll	r17,r6,r17
    3504:	0011883a 	mov	r8,zero
    3508:	003ef506 	br	30e0 <_gp+0xffff4cc0>
    350c:	3009883a 	mov	r4,r6
    3510:	d9800315 	stw	r6,12(sp)
    3514:	da400115 	stw	r9,4(sp)
    3518:	0004ba00 	call	4ba0 <__clzsi2>
    351c:	10800804 	addi	r2,r2,32
    3520:	da400117 	ldw	r9,4(sp)
    3524:	d9800317 	ldw	r6,12(sp)
    3528:	003ee306 	br	30b8 <_gp+0xffff4c98>
    352c:	85a1883a 	add	r16,r16,r22
    3530:	8585803a 	cmpltu	r2,r16,r22
    3534:	1705883a 	add	r2,r2,fp
    3538:	14a5883a 	add	r18,r2,r18
    353c:	88bfffc4 	addi	r2,r17,-1
    3540:	e4800c2e 	bgeu	fp,r18,3574 <__divdf3+0x72c>
    3544:	90c03e36 	bltu	r18,r3,3640 <__divdf3+0x7f8>
    3548:	1c806926 	beq	r3,r18,36f0 <__divdf3+0x8a8>
    354c:	90c7c83a 	sub	r3,r18,r3
    3550:	1023883a 	mov	r17,r2
    3554:	003f5206 	br	32a0 <_gp+0xffff4e80>
    3558:	923f0436 	bltu	r18,r8,316c <_gp+0xffff4d4c>
    355c:	800897fa 	slli	r4,r16,31
    3560:	9004d07a 	srli	r2,r18,1
    3564:	8006d07a 	srli	r3,r16,1
    3568:	902097fa 	slli	r16,r18,31
    356c:	20a4b03a 	or	r18,r4,r2
    3570:	003f0106 	br	3178 <_gp+0xffff4d58>
    3574:	e4bff51e 	bne	fp,r18,354c <_gp+0xffff512c>
    3578:	85bff22e 	bgeu	r16,r22,3544 <_gp+0xffff5124>
    357c:	e0c7c83a 	sub	r3,fp,r3
    3580:	1023883a 	mov	r17,r2
    3584:	003f4606 	br	32a0 <_gp+0xffff4e80>
    3588:	100f883a 	mov	r7,r2
    358c:	003f2b06 	br	323c <_gp+0xffff4e1c>
    3590:	180d883a 	mov	r6,r3
    3594:	003f1306 	br	31e4 <_gp+0xffff4dc4>
    3598:	813fe436 	bltu	r16,r4,352c <_gp+0xffff510c>
    359c:	0007883a 	mov	r3,zero
    35a0:	003f3f06 	br	32a0 <_gp+0xffff4e80>
    35a4:	ba402c36 	bltu	r23,r9,3658 <__divdf3+0x810>
    35a8:	4dc05426 	beq	r9,r23,36fc <__divdf3+0x8b4>
    35ac:	1011883a 	mov	r8,r2
    35b0:	003f8906 	br	33d8 <_gp+0xffff4fb8>
    35b4:	023fffc4 	movi	r8,-1
    35b8:	003f8806 	br	33dc <_gp+0xffff4fbc>
    35bc:	1811883a 	mov	r8,r3
    35c0:	003f5406 	br	3314 <_gp+0xffff4ef4>
    35c4:	1025883a 	mov	r18,r2
    35c8:	003f6d06 	br	3380 <_gp+0xffff4f60>
    35cc:	b827883a 	mov	r19,r23
    35d0:	003f8206 	br	33dc <_gp+0xffff4fbc>
    35d4:	010007c4 	movi	r4,31
    35d8:	20c02616 	blt	r4,r3,3674 <__divdf3+0x82c>
    35dc:	00800804 	movi	r2,32
    35e0:	10c5c83a 	sub	r2,r2,r3
    35e4:	888a983a 	sll	r5,r17,r2
    35e8:	40c8d83a 	srl	r4,r8,r3
    35ec:	4084983a 	sll	r2,r8,r2
    35f0:	88e2d83a 	srl	r17,r17,r3
    35f4:	2906b03a 	or	r3,r5,r4
    35f8:	1004c03a 	cmpne	r2,r2,zero
    35fc:	1886b03a 	or	r3,r3,r2
    3600:	188001cc 	andi	r2,r3,7
    3604:	10000726 	beq	r2,zero,3624 <__divdf3+0x7dc>
    3608:	188003cc 	andi	r2,r3,15
    360c:	01000104 	movi	r4,4
    3610:	11000426 	beq	r2,r4,3624 <__divdf3+0x7dc>
    3614:	1805883a 	mov	r2,r3
    3618:	10c00104 	addi	r3,r2,4
    361c:	1885803a 	cmpltu	r2,r3,r2
    3620:	88a3883a 	add	r17,r17,r2
    3624:	8880202c 	andhi	r2,r17,128
    3628:	10002726 	beq	r2,zero,36c8 <__divdf3+0x880>
    362c:	98c0004c 	andi	r3,r19,1
    3630:	00800044 	movi	r2,1
    3634:	000b883a 	mov	r5,zero
    3638:	0025883a 	mov	r18,zero
    363c:	003e6106 	br	2fc4 <_gp+0xffff4ba4>
    3640:	85a1883a 	add	r16,r16,r22
    3644:	8585803a 	cmpltu	r2,r16,r22
    3648:	1705883a 	add	r2,r2,fp
    364c:	14a5883a 	add	r18,r2,r18
    3650:	8c7fff84 	addi	r17,r17,-2
    3654:	003f1106 	br	329c <_gp+0xffff4e7c>
    3658:	b589883a 	add	r4,r22,r22
    365c:	25ad803a 	cmpltu	r22,r4,r22
    3660:	b739883a 	add	fp,r22,fp
    3664:	40bfff84 	addi	r2,r8,-2
    3668:	bf2f883a 	add	r23,r23,fp
    366c:	202d883a 	mov	r22,r4
    3670:	003f9306 	br	34c0 <_gp+0xffff50a0>
    3674:	013ff844 	movi	r4,-31
    3678:	2085c83a 	sub	r2,r4,r2
    367c:	8888d83a 	srl	r4,r17,r2
    3680:	00800804 	movi	r2,32
    3684:	18802126 	beq	r3,r2,370c <__divdf3+0x8c4>
    3688:	00801004 	movi	r2,64
    368c:	10c5c83a 	sub	r2,r2,r3
    3690:	8884983a 	sll	r2,r17,r2
    3694:	1204b03a 	or	r2,r2,r8
    3698:	1004c03a 	cmpne	r2,r2,zero
    369c:	2084b03a 	or	r2,r4,r2
    36a0:	144001cc 	andi	r17,r2,7
    36a4:	88000d1e 	bne	r17,zero,36dc <__divdf3+0x894>
    36a8:	000b883a 	mov	r5,zero
    36ac:	1024d0fa 	srli	r18,r2,3
    36b0:	98c0004c 	andi	r3,r19,1
    36b4:	0005883a 	mov	r2,zero
    36b8:	9464b03a 	or	r18,r18,r17
    36bc:	003e4106 	br	2fc4 <_gp+0xffff4ba4>
    36c0:	1007883a 	mov	r3,r2
    36c4:	0023883a 	mov	r17,zero
    36c8:	880a927a 	slli	r5,r17,9
    36cc:	1805883a 	mov	r2,r3
    36d0:	8822977a 	slli	r17,r17,29
    36d4:	280ad33a 	srli	r5,r5,12
    36d8:	003ff406 	br	36ac <_gp+0xffff528c>
    36dc:	10c003cc 	andi	r3,r2,15
    36e0:	01000104 	movi	r4,4
    36e4:	193ff626 	beq	r3,r4,36c0 <_gp+0xffff52a0>
    36e8:	0023883a 	mov	r17,zero
    36ec:	003fca06 	br	3618 <_gp+0xffff51f8>
    36f0:	813fd336 	bltu	r16,r4,3640 <_gp+0xffff5220>
    36f4:	1023883a 	mov	r17,r2
    36f8:	003fa806 	br	359c <_gp+0xffff517c>
    36fc:	b0ffd636 	bltu	r22,r3,3658 <_gp+0xffff5238>
    3700:	1011883a 	mov	r8,r2
    3704:	b0ff341e 	bne	r22,r3,33d8 <_gp+0xffff4fb8>
    3708:	003f3406 	br	33dc <_gp+0xffff4fbc>
    370c:	0005883a 	mov	r2,zero
    3710:	003fe006 	br	3694 <_gp+0xffff5274>
    3714:	00800434 	movhi	r2,16
    3718:	89400234 	orhi	r5,r17,8
    371c:	10bfffc4 	addi	r2,r2,-1
    3720:	b807883a 	mov	r3,r23
    3724:	288a703a 	and	r5,r5,r2
    3728:	4025883a 	mov	r18,r8
    372c:	003e8206 	br	3138 <_gp+0xffff4d18>

00003730 <__eqdf2>:
    3730:	2804d53a 	srli	r2,r5,20
    3734:	3806d53a 	srli	r3,r7,20
    3738:	02000434 	movhi	r8,16
    373c:	423fffc4 	addi	r8,r8,-1
    3740:	1081ffcc 	andi	r2,r2,2047
    3744:	0281ffc4 	movi	r10,2047
    3748:	2a12703a 	and	r9,r5,r8
    374c:	18c1ffcc 	andi	r3,r3,2047
    3750:	3a10703a 	and	r8,r7,r8
    3754:	280ad7fa 	srli	r5,r5,31
    3758:	380ed7fa 	srli	r7,r7,31
    375c:	12801026 	beq	r2,r10,37a0 <__eqdf2+0x70>
    3760:	0281ffc4 	movi	r10,2047
    3764:	1a800a26 	beq	r3,r10,3790 <__eqdf2+0x60>
    3768:	10c00226 	beq	r2,r3,3774 <__eqdf2+0x44>
    376c:	00800044 	movi	r2,1
    3770:	f800283a 	ret
    3774:	4a3ffd1e 	bne	r9,r8,376c <_gp+0xffff534c>
    3778:	21bffc1e 	bne	r4,r6,376c <_gp+0xffff534c>
    377c:	29c00c26 	beq	r5,r7,37b0 <__eqdf2+0x80>
    3780:	103ffa1e 	bne	r2,zero,376c <_gp+0xffff534c>
    3784:	2244b03a 	or	r2,r4,r9
    3788:	1004c03a 	cmpne	r2,r2,zero
    378c:	f800283a 	ret
    3790:	3214b03a 	or	r10,r6,r8
    3794:	503ff426 	beq	r10,zero,3768 <_gp+0xffff5348>
    3798:	00800044 	movi	r2,1
    379c:	f800283a 	ret
    37a0:	2254b03a 	or	r10,r4,r9
    37a4:	503fee26 	beq	r10,zero,3760 <_gp+0xffff5340>
    37a8:	00800044 	movi	r2,1
    37ac:	f800283a 	ret
    37b0:	0005883a 	mov	r2,zero
    37b4:	f800283a 	ret

000037b8 <__gedf2>:
    37b8:	2804d53a 	srli	r2,r5,20
    37bc:	3806d53a 	srli	r3,r7,20
    37c0:	02000434 	movhi	r8,16
    37c4:	423fffc4 	addi	r8,r8,-1
    37c8:	1081ffcc 	andi	r2,r2,2047
    37cc:	0241ffc4 	movi	r9,2047
    37d0:	2a14703a 	and	r10,r5,r8
    37d4:	18c1ffcc 	andi	r3,r3,2047
    37d8:	3a10703a 	and	r8,r7,r8
    37dc:	280ad7fa 	srli	r5,r5,31
    37e0:	380ed7fa 	srli	r7,r7,31
    37e4:	12401d26 	beq	r2,r9,385c <__gedf2+0xa4>
    37e8:	0241ffc4 	movi	r9,2047
    37ec:	1a401226 	beq	r3,r9,3838 <__gedf2+0x80>
    37f0:	1000081e 	bne	r2,zero,3814 <__gedf2+0x5c>
    37f4:	2296b03a 	or	r11,r4,r10
    37f8:	5813003a 	cmpeq	r9,r11,zero
    37fc:	1800091e 	bne	r3,zero,3824 <__gedf2+0x6c>
    3800:	3218b03a 	or	r12,r6,r8
    3804:	6000071e 	bne	r12,zero,3824 <__gedf2+0x6c>
    3808:	0005883a 	mov	r2,zero
    380c:	5800101e 	bne	r11,zero,3850 <__gedf2+0x98>
    3810:	f800283a 	ret
    3814:	18000c1e 	bne	r3,zero,3848 <__gedf2+0x90>
    3818:	3212b03a 	or	r9,r6,r8
    381c:	48000c26 	beq	r9,zero,3850 <__gedf2+0x98>
    3820:	0013883a 	mov	r9,zero
    3824:	39c03fcc 	andi	r7,r7,255
    3828:	48000826 	beq	r9,zero,384c <__gedf2+0x94>
    382c:	38000926 	beq	r7,zero,3854 <__gedf2+0x9c>
    3830:	00800044 	movi	r2,1
    3834:	f800283a 	ret
    3838:	3212b03a 	or	r9,r6,r8
    383c:	483fec26 	beq	r9,zero,37f0 <_gp+0xffff53d0>
    3840:	00bfff84 	movi	r2,-2
    3844:	f800283a 	ret
    3848:	39c03fcc 	andi	r7,r7,255
    384c:	29c00626 	beq	r5,r7,3868 <__gedf2+0xb0>
    3850:	283ff726 	beq	r5,zero,3830 <_gp+0xffff5410>
    3854:	00bfffc4 	movi	r2,-1
    3858:	f800283a 	ret
    385c:	2292b03a 	or	r9,r4,r10
    3860:	483fe126 	beq	r9,zero,37e8 <_gp+0xffff53c8>
    3864:	003ff606 	br	3840 <_gp+0xffff5420>
    3868:	18bff916 	blt	r3,r2,3850 <_gp+0xffff5430>
    386c:	10c00316 	blt	r2,r3,387c <__gedf2+0xc4>
    3870:	42bff736 	bltu	r8,r10,3850 <_gp+0xffff5430>
    3874:	52000326 	beq	r10,r8,3884 <__gedf2+0xcc>
    3878:	5200042e 	bgeu	r10,r8,388c <__gedf2+0xd4>
    387c:	283fec1e 	bne	r5,zero,3830 <_gp+0xffff5410>
    3880:	003ff406 	br	3854 <_gp+0xffff5434>
    3884:	313ff236 	bltu	r6,r4,3850 <_gp+0xffff5430>
    3888:	21bffc36 	bltu	r4,r6,387c <_gp+0xffff545c>
    388c:	0005883a 	mov	r2,zero
    3890:	f800283a 	ret

00003894 <__ledf2>:
    3894:	2804d53a 	srli	r2,r5,20
    3898:	3810d53a 	srli	r8,r7,20
    389c:	00c00434 	movhi	r3,16
    38a0:	18ffffc4 	addi	r3,r3,-1
    38a4:	1081ffcc 	andi	r2,r2,2047
    38a8:	0241ffc4 	movi	r9,2047
    38ac:	28d4703a 	and	r10,r5,r3
    38b0:	4201ffcc 	andi	r8,r8,2047
    38b4:	38c6703a 	and	r3,r7,r3
    38b8:	280ad7fa 	srli	r5,r5,31
    38bc:	380ed7fa 	srli	r7,r7,31
    38c0:	12401f26 	beq	r2,r9,3940 <__ledf2+0xac>
    38c4:	0241ffc4 	movi	r9,2047
    38c8:	42401426 	beq	r8,r9,391c <__ledf2+0x88>
    38cc:	1000091e 	bne	r2,zero,38f4 <__ledf2+0x60>
    38d0:	2296b03a 	or	r11,r4,r10
    38d4:	5813003a 	cmpeq	r9,r11,zero
    38d8:	29403fcc 	andi	r5,r5,255
    38dc:	40000a1e 	bne	r8,zero,3908 <__ledf2+0x74>
    38e0:	30d8b03a 	or	r12,r6,r3
    38e4:	6000081e 	bne	r12,zero,3908 <__ledf2+0x74>
    38e8:	0005883a 	mov	r2,zero
    38ec:	5800111e 	bne	r11,zero,3934 <__ledf2+0xa0>
    38f0:	f800283a 	ret
    38f4:	29403fcc 	andi	r5,r5,255
    38f8:	40000c1e 	bne	r8,zero,392c <__ledf2+0x98>
    38fc:	30d2b03a 	or	r9,r6,r3
    3900:	48000c26 	beq	r9,zero,3934 <__ledf2+0xa0>
    3904:	0013883a 	mov	r9,zero
    3908:	39c03fcc 	andi	r7,r7,255
    390c:	48000826 	beq	r9,zero,3930 <__ledf2+0x9c>
    3910:	38001126 	beq	r7,zero,3958 <__ledf2+0xc4>
    3914:	00800044 	movi	r2,1
    3918:	f800283a 	ret
    391c:	30d2b03a 	or	r9,r6,r3
    3920:	483fea26 	beq	r9,zero,38cc <_gp+0xffff54ac>
    3924:	00800084 	movi	r2,2
    3928:	f800283a 	ret
    392c:	39c03fcc 	andi	r7,r7,255
    3930:	39400726 	beq	r7,r5,3950 <__ledf2+0xbc>
    3934:	2800081e 	bne	r5,zero,3958 <__ledf2+0xc4>
    3938:	00800044 	movi	r2,1
    393c:	f800283a 	ret
    3940:	2292b03a 	or	r9,r4,r10
    3944:	483fdf26 	beq	r9,zero,38c4 <_gp+0xffff54a4>
    3948:	00800084 	movi	r2,2
    394c:	f800283a 	ret
    3950:	4080030e 	bge	r8,r2,3960 <__ledf2+0xcc>
    3954:	383fef26 	beq	r7,zero,3914 <_gp+0xffff54f4>
    3958:	00bfffc4 	movi	r2,-1
    395c:	f800283a 	ret
    3960:	123feb16 	blt	r2,r8,3910 <_gp+0xffff54f0>
    3964:	1abff336 	bltu	r3,r10,3934 <_gp+0xffff5514>
    3968:	50c00326 	beq	r10,r3,3978 <__ledf2+0xe4>
    396c:	50c0042e 	bgeu	r10,r3,3980 <__ledf2+0xec>
    3970:	283fe81e 	bne	r5,zero,3914 <_gp+0xffff54f4>
    3974:	003ff806 	br	3958 <_gp+0xffff5538>
    3978:	313fee36 	bltu	r6,r4,3934 <_gp+0xffff5514>
    397c:	21bffc36 	bltu	r4,r6,3970 <_gp+0xffff5550>
    3980:	0005883a 	mov	r2,zero
    3984:	f800283a 	ret

00003988 <__muldf3>:
    3988:	defff304 	addi	sp,sp,-52
    398c:	2804d53a 	srli	r2,r5,20
    3990:	dd800915 	stw	r22,36(sp)
    3994:	282cd7fa 	srli	r22,r5,31
    3998:	dc000315 	stw	r16,12(sp)
    399c:	04000434 	movhi	r16,16
    39a0:	dd400815 	stw	r21,32(sp)
    39a4:	dc800515 	stw	r18,20(sp)
    39a8:	843fffc4 	addi	r16,r16,-1
    39ac:	dfc00c15 	stw	ra,48(sp)
    39b0:	df000b15 	stw	fp,44(sp)
    39b4:	ddc00a15 	stw	r23,40(sp)
    39b8:	dd000715 	stw	r20,28(sp)
    39bc:	dcc00615 	stw	r19,24(sp)
    39c0:	dc400415 	stw	r17,16(sp)
    39c4:	1481ffcc 	andi	r18,r2,2047
    39c8:	2c20703a 	and	r16,r5,r16
    39cc:	b02b883a 	mov	r21,r22
    39d0:	b2403fcc 	andi	r9,r22,255
    39d4:	90006026 	beq	r18,zero,3b58 <__muldf3+0x1d0>
    39d8:	0081ffc4 	movi	r2,2047
    39dc:	2029883a 	mov	r20,r4
    39e0:	90803626 	beq	r18,r2,3abc <__muldf3+0x134>
    39e4:	80800434 	orhi	r2,r16,16
    39e8:	100490fa 	slli	r2,r2,3
    39ec:	2020d77a 	srli	r16,r4,29
    39f0:	202890fa 	slli	r20,r4,3
    39f4:	94bf0044 	addi	r18,r18,-1023
    39f8:	80a0b03a 	or	r16,r16,r2
    39fc:	0027883a 	mov	r19,zero
    3a00:	0039883a 	mov	fp,zero
    3a04:	3804d53a 	srli	r2,r7,20
    3a08:	382ed7fa 	srli	r23,r7,31
    3a0c:	04400434 	movhi	r17,16
    3a10:	8c7fffc4 	addi	r17,r17,-1
    3a14:	1081ffcc 	andi	r2,r2,2047
    3a18:	3011883a 	mov	r8,r6
    3a1c:	3c62703a 	and	r17,r7,r17
    3a20:	ba803fcc 	andi	r10,r23,255
    3a24:	10006d26 	beq	r2,zero,3bdc <__muldf3+0x254>
    3a28:	00c1ffc4 	movi	r3,2047
    3a2c:	10c06526 	beq	r2,r3,3bc4 <__muldf3+0x23c>
    3a30:	88c00434 	orhi	r3,r17,16
    3a34:	180690fa 	slli	r3,r3,3
    3a38:	3022d77a 	srli	r17,r6,29
    3a3c:	301090fa 	slli	r8,r6,3
    3a40:	10bf0044 	addi	r2,r2,-1023
    3a44:	88e2b03a 	or	r17,r17,r3
    3a48:	000b883a 	mov	r5,zero
    3a4c:	9085883a 	add	r2,r18,r2
    3a50:	2cc8b03a 	or	r4,r5,r19
    3a54:	00c003c4 	movi	r3,15
    3a58:	bdacf03a 	xor	r22,r23,r22
    3a5c:	12c00044 	addi	r11,r2,1
    3a60:	19009936 	bltu	r3,r4,3cc8 <__muldf3+0x340>
    3a64:	200890ba 	slli	r4,r4,2
    3a68:	00c00034 	movhi	r3,0
    3a6c:	18ce9f04 	addi	r3,r3,14972
    3a70:	20c9883a 	add	r4,r4,r3
    3a74:	20c00017 	ldw	r3,0(r4)
    3a78:	1800683a 	jmp	r3
    3a7c:	00003cc8 	cmpgei	zero,zero,243
    3a80:	00003adc 	xori	zero,zero,235
    3a84:	00003adc 	xori	zero,zero,235
    3a88:	00003ad8 	cmpnei	zero,zero,235
    3a8c:	00003ca4 	muli	zero,zero,242
    3a90:	00003ca4 	muli	zero,zero,242
    3a94:	00003c8c 	andi	zero,zero,242
    3a98:	00003ad8 	cmpnei	zero,zero,235
    3a9c:	00003ca4 	muli	zero,zero,242
    3aa0:	00003c8c 	andi	zero,zero,242
    3aa4:	00003ca4 	muli	zero,zero,242
    3aa8:	00003ad8 	cmpnei	zero,zero,235
    3aac:	00003cb4 	movhi	zero,242
    3ab0:	00003cb4 	movhi	zero,242
    3ab4:	00003cb4 	movhi	zero,242
    3ab8:	00003ed0 	cmplti	zero,zero,251
    3abc:	2404b03a 	or	r2,r4,r16
    3ac0:	10006f1e 	bne	r2,zero,3c80 <__muldf3+0x2f8>
    3ac4:	04c00204 	movi	r19,8
    3ac8:	0021883a 	mov	r16,zero
    3acc:	0029883a 	mov	r20,zero
    3ad0:	07000084 	movi	fp,2
    3ad4:	003fcb06 	br	3a04 <_gp+0xffff55e4>
    3ad8:	502d883a 	mov	r22,r10
    3adc:	00800084 	movi	r2,2
    3ae0:	28805726 	beq	r5,r2,3c40 <__muldf3+0x2b8>
    3ae4:	008000c4 	movi	r2,3
    3ae8:	28816626 	beq	r5,r2,4084 <__muldf3+0x6fc>
    3aec:	00800044 	movi	r2,1
    3af0:	2881411e 	bne	r5,r2,3ff8 <__muldf3+0x670>
    3af4:	b02b883a 	mov	r21,r22
    3af8:	0005883a 	mov	r2,zero
    3afc:	000b883a 	mov	r5,zero
    3b00:	0029883a 	mov	r20,zero
    3b04:	1004953a 	slli	r2,r2,20
    3b08:	a8c03fcc 	andi	r3,r21,255
    3b0c:	04400434 	movhi	r17,16
    3b10:	8c7fffc4 	addi	r17,r17,-1
    3b14:	180697fa 	slli	r3,r3,31
    3b18:	2c4a703a 	and	r5,r5,r17
    3b1c:	288ab03a 	or	r5,r5,r2
    3b20:	28c6b03a 	or	r3,r5,r3
    3b24:	a005883a 	mov	r2,r20
    3b28:	dfc00c17 	ldw	ra,48(sp)
    3b2c:	df000b17 	ldw	fp,44(sp)
    3b30:	ddc00a17 	ldw	r23,40(sp)
    3b34:	dd800917 	ldw	r22,36(sp)
    3b38:	dd400817 	ldw	r21,32(sp)
    3b3c:	dd000717 	ldw	r20,28(sp)
    3b40:	dcc00617 	ldw	r19,24(sp)
    3b44:	dc800517 	ldw	r18,20(sp)
    3b48:	dc400417 	ldw	r17,16(sp)
    3b4c:	dc000317 	ldw	r16,12(sp)
    3b50:	dec00d04 	addi	sp,sp,52
    3b54:	f800283a 	ret
    3b58:	2404b03a 	or	r2,r4,r16
    3b5c:	2027883a 	mov	r19,r4
    3b60:	10004226 	beq	r2,zero,3c6c <__muldf3+0x2e4>
    3b64:	8000fc26 	beq	r16,zero,3f58 <__muldf3+0x5d0>
    3b68:	8009883a 	mov	r4,r16
    3b6c:	d9800215 	stw	r6,8(sp)
    3b70:	d9c00015 	stw	r7,0(sp)
    3b74:	da400115 	stw	r9,4(sp)
    3b78:	0004ba00 	call	4ba0 <__clzsi2>
    3b7c:	d9800217 	ldw	r6,8(sp)
    3b80:	d9c00017 	ldw	r7,0(sp)
    3b84:	da400117 	ldw	r9,4(sp)
    3b88:	113ffd44 	addi	r4,r2,-11
    3b8c:	00c00704 	movi	r3,28
    3b90:	1900ed16 	blt	r3,r4,3f48 <__muldf3+0x5c0>
    3b94:	00c00744 	movi	r3,29
    3b98:	147ffe04 	addi	r17,r2,-8
    3b9c:	1907c83a 	sub	r3,r3,r4
    3ba0:	8460983a 	sll	r16,r16,r17
    3ba4:	98c6d83a 	srl	r3,r19,r3
    3ba8:	9c68983a 	sll	r20,r19,r17
    3bac:	1c20b03a 	or	r16,r3,r16
    3bb0:	1080fcc4 	addi	r2,r2,1011
    3bb4:	00a5c83a 	sub	r18,zero,r2
    3bb8:	0027883a 	mov	r19,zero
    3bbc:	0039883a 	mov	fp,zero
    3bc0:	003f9006 	br	3a04 <_gp+0xffff55e4>
    3bc4:	3446b03a 	or	r3,r6,r17
    3bc8:	1800261e 	bne	r3,zero,3c64 <__muldf3+0x2dc>
    3bcc:	0023883a 	mov	r17,zero
    3bd0:	0011883a 	mov	r8,zero
    3bd4:	01400084 	movi	r5,2
    3bd8:	003f9c06 	br	3a4c <_gp+0xffff562c>
    3bdc:	3446b03a 	or	r3,r6,r17
    3be0:	18001c26 	beq	r3,zero,3c54 <__muldf3+0x2cc>
    3be4:	8800ce26 	beq	r17,zero,3f20 <__muldf3+0x598>
    3be8:	8809883a 	mov	r4,r17
    3bec:	d9800215 	stw	r6,8(sp)
    3bf0:	da400115 	stw	r9,4(sp)
    3bf4:	da800015 	stw	r10,0(sp)
    3bf8:	0004ba00 	call	4ba0 <__clzsi2>
    3bfc:	d9800217 	ldw	r6,8(sp)
    3c00:	da400117 	ldw	r9,4(sp)
    3c04:	da800017 	ldw	r10,0(sp)
    3c08:	113ffd44 	addi	r4,r2,-11
    3c0c:	00c00704 	movi	r3,28
    3c10:	1900bf16 	blt	r3,r4,3f10 <__muldf3+0x588>
    3c14:	00c00744 	movi	r3,29
    3c18:	123ffe04 	addi	r8,r2,-8
    3c1c:	1907c83a 	sub	r3,r3,r4
    3c20:	8a22983a 	sll	r17,r17,r8
    3c24:	30c6d83a 	srl	r3,r6,r3
    3c28:	3210983a 	sll	r8,r6,r8
    3c2c:	1c62b03a 	or	r17,r3,r17
    3c30:	1080fcc4 	addi	r2,r2,1011
    3c34:	0085c83a 	sub	r2,zero,r2
    3c38:	000b883a 	mov	r5,zero
    3c3c:	003f8306 	br	3a4c <_gp+0xffff562c>
    3c40:	b02b883a 	mov	r21,r22
    3c44:	0081ffc4 	movi	r2,2047
    3c48:	000b883a 	mov	r5,zero
    3c4c:	0029883a 	mov	r20,zero
    3c50:	003fac06 	br	3b04 <_gp+0xffff56e4>
    3c54:	0023883a 	mov	r17,zero
    3c58:	0011883a 	mov	r8,zero
    3c5c:	01400044 	movi	r5,1
    3c60:	003f7a06 	br	3a4c <_gp+0xffff562c>
    3c64:	014000c4 	movi	r5,3
    3c68:	003f7806 	br	3a4c <_gp+0xffff562c>
    3c6c:	04c00104 	movi	r19,4
    3c70:	0021883a 	mov	r16,zero
    3c74:	0029883a 	mov	r20,zero
    3c78:	07000044 	movi	fp,1
    3c7c:	003f6106 	br	3a04 <_gp+0xffff55e4>
    3c80:	04c00304 	movi	r19,12
    3c84:	070000c4 	movi	fp,3
    3c88:	003f5e06 	br	3a04 <_gp+0xffff55e4>
    3c8c:	01400434 	movhi	r5,16
    3c90:	002b883a 	mov	r21,zero
    3c94:	297fffc4 	addi	r5,r5,-1
    3c98:	053fffc4 	movi	r20,-1
    3c9c:	0081ffc4 	movi	r2,2047
    3ca0:	003f9806 	br	3b04 <_gp+0xffff56e4>
    3ca4:	8023883a 	mov	r17,r16
    3ca8:	a011883a 	mov	r8,r20
    3cac:	e00b883a 	mov	r5,fp
    3cb0:	003f8a06 	br	3adc <_gp+0xffff56bc>
    3cb4:	8023883a 	mov	r17,r16
    3cb8:	a011883a 	mov	r8,r20
    3cbc:	482d883a 	mov	r22,r9
    3cc0:	e00b883a 	mov	r5,fp
    3cc4:	003f8506 	br	3adc <_gp+0xffff56bc>
    3cc8:	a00ad43a 	srli	r5,r20,16
    3ccc:	401ad43a 	srli	r13,r8,16
    3cd0:	a53fffcc 	andi	r20,r20,65535
    3cd4:	423fffcc 	andi	r8,r8,65535
    3cd8:	4519383a 	mul	r12,r8,r20
    3cdc:	4147383a 	mul	r3,r8,r5
    3ce0:	6d09383a 	mul	r4,r13,r20
    3ce4:	600cd43a 	srli	r6,r12,16
    3ce8:	2b5d383a 	mul	r14,r5,r13
    3cec:	20c9883a 	add	r4,r4,r3
    3cf0:	310d883a 	add	r6,r6,r4
    3cf4:	30c0022e 	bgeu	r6,r3,3d00 <__muldf3+0x378>
    3cf8:	00c00074 	movhi	r3,1
    3cfc:	70dd883a 	add	r14,r14,r3
    3d00:	8826d43a 	srli	r19,r17,16
    3d04:	8bffffcc 	andi	r15,r17,65535
    3d08:	7d23383a 	mul	r17,r15,r20
    3d0c:	7949383a 	mul	r4,r15,r5
    3d10:	9d29383a 	mul	r20,r19,r20
    3d14:	8814d43a 	srli	r10,r17,16
    3d18:	3012943a 	slli	r9,r6,16
    3d1c:	a129883a 	add	r20,r20,r4
    3d20:	633fffcc 	andi	r12,r12,65535
    3d24:	5515883a 	add	r10,r10,r20
    3d28:	3006d43a 	srli	r3,r6,16
    3d2c:	4b13883a 	add	r9,r9,r12
    3d30:	2ccb383a 	mul	r5,r5,r19
    3d34:	5100022e 	bgeu	r10,r4,3d40 <__muldf3+0x3b8>
    3d38:	01000074 	movhi	r4,1
    3d3c:	290b883a 	add	r5,r5,r4
    3d40:	802ad43a 	srli	r21,r16,16
    3d44:	843fffcc 	andi	r16,r16,65535
    3d48:	440d383a 	mul	r6,r8,r16
    3d4c:	4565383a 	mul	r18,r8,r21
    3d50:	8349383a 	mul	r4,r16,r13
    3d54:	500e943a 	slli	r7,r10,16
    3d58:	3010d43a 	srli	r8,r6,16
    3d5c:	5028d43a 	srli	r20,r10,16
    3d60:	2489883a 	add	r4,r4,r18
    3d64:	8abfffcc 	andi	r10,r17,65535
    3d68:	3a95883a 	add	r10,r7,r10
    3d6c:	4119883a 	add	r12,r8,r4
    3d70:	a169883a 	add	r20,r20,r5
    3d74:	1a87883a 	add	r3,r3,r10
    3d78:	6d5b383a 	mul	r13,r13,r21
    3d7c:	6480022e 	bgeu	r12,r18,3d88 <__muldf3+0x400>
    3d80:	01000074 	movhi	r4,1
    3d84:	691b883a 	add	r13,r13,r4
    3d88:	7c25383a 	mul	r18,r15,r16
    3d8c:	7d4b383a 	mul	r5,r15,r21
    3d90:	84cf383a 	mul	r7,r16,r19
    3d94:	901ed43a 	srli	r15,r18,16
    3d98:	6008d43a 	srli	r4,r12,16
    3d9c:	6010943a 	slli	r8,r12,16
    3da0:	394f883a 	add	r7,r7,r5
    3da4:	333fffcc 	andi	r12,r6,65535
    3da8:	79df883a 	add	r15,r15,r7
    3dac:	235b883a 	add	r13,r4,r13
    3db0:	9d63383a 	mul	r17,r19,r21
    3db4:	4309883a 	add	r4,r8,r12
    3db8:	7940022e 	bgeu	r15,r5,3dc4 <__muldf3+0x43c>
    3dbc:	01400074 	movhi	r5,1
    3dc0:	8963883a 	add	r17,r17,r5
    3dc4:	780a943a 	slli	r5,r15,16
    3dc8:	91bfffcc 	andi	r6,r18,65535
    3dcc:	70c7883a 	add	r3,r14,r3
    3dd0:	298d883a 	add	r6,r5,r6
    3dd4:	1a8f803a 	cmpltu	r7,r3,r10
    3dd8:	350b883a 	add	r5,r6,r20
    3ddc:	20c7883a 	add	r3,r4,r3
    3de0:	3955883a 	add	r10,r7,r5
    3de4:	1909803a 	cmpltu	r4,r3,r4
    3de8:	6a91883a 	add	r8,r13,r10
    3dec:	780cd43a 	srli	r6,r15,16
    3df0:	2219883a 	add	r12,r4,r8
    3df4:	2d0b803a 	cmpltu	r5,r5,r20
    3df8:	51cf803a 	cmpltu	r7,r10,r7
    3dfc:	29ceb03a 	or	r7,r5,r7
    3e00:	4351803a 	cmpltu	r8,r8,r13
    3e04:	610b803a 	cmpltu	r5,r12,r4
    3e08:	4148b03a 	or	r4,r8,r5
    3e0c:	398f883a 	add	r7,r7,r6
    3e10:	3909883a 	add	r4,r7,r4
    3e14:	1810927a 	slli	r8,r3,9
    3e18:	2449883a 	add	r4,r4,r17
    3e1c:	2008927a 	slli	r4,r4,9
    3e20:	6022d5fa 	srli	r17,r12,23
    3e24:	1806d5fa 	srli	r3,r3,23
    3e28:	4252b03a 	or	r9,r8,r9
    3e2c:	600a927a 	slli	r5,r12,9
    3e30:	4810c03a 	cmpne	r8,r9,zero
    3e34:	2462b03a 	or	r17,r4,r17
    3e38:	40c6b03a 	or	r3,r8,r3
    3e3c:	8900402c 	andhi	r4,r17,256
    3e40:	1950b03a 	or	r8,r3,r5
    3e44:	20000726 	beq	r4,zero,3e64 <__muldf3+0x4dc>
    3e48:	4006d07a 	srli	r3,r8,1
    3e4c:	880497fa 	slli	r2,r17,31
    3e50:	4200004c 	andi	r8,r8,1
    3e54:	8822d07a 	srli	r17,r17,1
    3e58:	1a10b03a 	or	r8,r3,r8
    3e5c:	1210b03a 	or	r8,r2,r8
    3e60:	5805883a 	mov	r2,r11
    3e64:	1140ffc4 	addi	r5,r2,1023
    3e68:	0140440e 	bge	zero,r5,3f7c <__muldf3+0x5f4>
    3e6c:	40c001cc 	andi	r3,r8,7
    3e70:	18000726 	beq	r3,zero,3e90 <__muldf3+0x508>
    3e74:	40c003cc 	andi	r3,r8,15
    3e78:	01000104 	movi	r4,4
    3e7c:	19000426 	beq	r3,r4,3e90 <__muldf3+0x508>
    3e80:	4107883a 	add	r3,r8,r4
    3e84:	1a11803a 	cmpltu	r8,r3,r8
    3e88:	8a23883a 	add	r17,r17,r8
    3e8c:	1811883a 	mov	r8,r3
    3e90:	88c0402c 	andhi	r3,r17,256
    3e94:	18000426 	beq	r3,zero,3ea8 <__muldf3+0x520>
    3e98:	11410004 	addi	r5,r2,1024
    3e9c:	00bfc034 	movhi	r2,65280
    3ea0:	10bfffc4 	addi	r2,r2,-1
    3ea4:	88a2703a 	and	r17,r17,r2
    3ea8:	0081ff84 	movi	r2,2046
    3eac:	117f6416 	blt	r2,r5,3c40 <_gp+0xffff5820>
    3eb0:	8828977a 	slli	r20,r17,29
    3eb4:	4010d0fa 	srli	r8,r8,3
    3eb8:	8822927a 	slli	r17,r17,9
    3ebc:	2881ffcc 	andi	r2,r5,2047
    3ec0:	a228b03a 	or	r20,r20,r8
    3ec4:	880ad33a 	srli	r5,r17,12
    3ec8:	b02b883a 	mov	r21,r22
    3ecc:	003f0d06 	br	3b04 <_gp+0xffff56e4>
    3ed0:	8080022c 	andhi	r2,r16,8
    3ed4:	10000926 	beq	r2,zero,3efc <__muldf3+0x574>
    3ed8:	8880022c 	andhi	r2,r17,8
    3edc:	1000071e 	bne	r2,zero,3efc <__muldf3+0x574>
    3ee0:	00800434 	movhi	r2,16
    3ee4:	89400234 	orhi	r5,r17,8
    3ee8:	10bfffc4 	addi	r2,r2,-1
    3eec:	b82b883a 	mov	r21,r23
    3ef0:	288a703a 	and	r5,r5,r2
    3ef4:	4029883a 	mov	r20,r8
    3ef8:	003f6806 	br	3c9c <_gp+0xffff587c>
    3efc:	00800434 	movhi	r2,16
    3f00:	81400234 	orhi	r5,r16,8
    3f04:	10bfffc4 	addi	r2,r2,-1
    3f08:	288a703a 	and	r5,r5,r2
    3f0c:	003f6306 	br	3c9c <_gp+0xffff587c>
    3f10:	147ff604 	addi	r17,r2,-40
    3f14:	3462983a 	sll	r17,r6,r17
    3f18:	0011883a 	mov	r8,zero
    3f1c:	003f4406 	br	3c30 <_gp+0xffff5810>
    3f20:	3009883a 	mov	r4,r6
    3f24:	d9800215 	stw	r6,8(sp)
    3f28:	da400115 	stw	r9,4(sp)
    3f2c:	da800015 	stw	r10,0(sp)
    3f30:	0004ba00 	call	4ba0 <__clzsi2>
    3f34:	10800804 	addi	r2,r2,32
    3f38:	da800017 	ldw	r10,0(sp)
    3f3c:	da400117 	ldw	r9,4(sp)
    3f40:	d9800217 	ldw	r6,8(sp)
    3f44:	003f3006 	br	3c08 <_gp+0xffff57e8>
    3f48:	143ff604 	addi	r16,r2,-40
    3f4c:	9c20983a 	sll	r16,r19,r16
    3f50:	0029883a 	mov	r20,zero
    3f54:	003f1606 	br	3bb0 <_gp+0xffff5790>
    3f58:	d9800215 	stw	r6,8(sp)
    3f5c:	d9c00015 	stw	r7,0(sp)
    3f60:	da400115 	stw	r9,4(sp)
    3f64:	0004ba00 	call	4ba0 <__clzsi2>
    3f68:	10800804 	addi	r2,r2,32
    3f6c:	da400117 	ldw	r9,4(sp)
    3f70:	d9c00017 	ldw	r7,0(sp)
    3f74:	d9800217 	ldw	r6,8(sp)
    3f78:	003f0306 	br	3b88 <_gp+0xffff5768>
    3f7c:	00c00044 	movi	r3,1
    3f80:	1947c83a 	sub	r3,r3,r5
    3f84:	00800e04 	movi	r2,56
    3f88:	10feda16 	blt	r2,r3,3af4 <_gp+0xffff56d4>
    3f8c:	008007c4 	movi	r2,31
    3f90:	10c01b16 	blt	r2,r3,4000 <__muldf3+0x678>
    3f94:	00800804 	movi	r2,32
    3f98:	10c5c83a 	sub	r2,r2,r3
    3f9c:	888a983a 	sll	r5,r17,r2
    3fa0:	40c8d83a 	srl	r4,r8,r3
    3fa4:	4084983a 	sll	r2,r8,r2
    3fa8:	88e2d83a 	srl	r17,r17,r3
    3fac:	2906b03a 	or	r3,r5,r4
    3fb0:	1004c03a 	cmpne	r2,r2,zero
    3fb4:	1886b03a 	or	r3,r3,r2
    3fb8:	188001cc 	andi	r2,r3,7
    3fbc:	10000726 	beq	r2,zero,3fdc <__muldf3+0x654>
    3fc0:	188003cc 	andi	r2,r3,15
    3fc4:	01000104 	movi	r4,4
    3fc8:	11000426 	beq	r2,r4,3fdc <__muldf3+0x654>
    3fcc:	1805883a 	mov	r2,r3
    3fd0:	10c00104 	addi	r3,r2,4
    3fd4:	1885803a 	cmpltu	r2,r3,r2
    3fd8:	88a3883a 	add	r17,r17,r2
    3fdc:	8880202c 	andhi	r2,r17,128
    3fe0:	10001c26 	beq	r2,zero,4054 <__muldf3+0x6cc>
    3fe4:	b02b883a 	mov	r21,r22
    3fe8:	00800044 	movi	r2,1
    3fec:	000b883a 	mov	r5,zero
    3ff0:	0029883a 	mov	r20,zero
    3ff4:	003ec306 	br	3b04 <_gp+0xffff56e4>
    3ff8:	5805883a 	mov	r2,r11
    3ffc:	003f9906 	br	3e64 <_gp+0xffff5a44>
    4000:	00bff844 	movi	r2,-31
    4004:	1145c83a 	sub	r2,r2,r5
    4008:	8888d83a 	srl	r4,r17,r2
    400c:	00800804 	movi	r2,32
    4010:	18801a26 	beq	r3,r2,407c <__muldf3+0x6f4>
    4014:	00801004 	movi	r2,64
    4018:	10c5c83a 	sub	r2,r2,r3
    401c:	8884983a 	sll	r2,r17,r2
    4020:	1204b03a 	or	r2,r2,r8
    4024:	1004c03a 	cmpne	r2,r2,zero
    4028:	2084b03a 	or	r2,r4,r2
    402c:	144001cc 	andi	r17,r2,7
    4030:	88000d1e 	bne	r17,zero,4068 <__muldf3+0x6e0>
    4034:	000b883a 	mov	r5,zero
    4038:	1028d0fa 	srli	r20,r2,3
    403c:	b02b883a 	mov	r21,r22
    4040:	0005883a 	mov	r2,zero
    4044:	a468b03a 	or	r20,r20,r17
    4048:	003eae06 	br	3b04 <_gp+0xffff56e4>
    404c:	1007883a 	mov	r3,r2
    4050:	0023883a 	mov	r17,zero
    4054:	880a927a 	slli	r5,r17,9
    4058:	1805883a 	mov	r2,r3
    405c:	8822977a 	slli	r17,r17,29
    4060:	280ad33a 	srli	r5,r5,12
    4064:	003ff406 	br	4038 <_gp+0xffff5c18>
    4068:	10c003cc 	andi	r3,r2,15
    406c:	01000104 	movi	r4,4
    4070:	193ff626 	beq	r3,r4,404c <_gp+0xffff5c2c>
    4074:	0023883a 	mov	r17,zero
    4078:	003fd506 	br	3fd0 <_gp+0xffff5bb0>
    407c:	0005883a 	mov	r2,zero
    4080:	003fe706 	br	4020 <_gp+0xffff5c00>
    4084:	00800434 	movhi	r2,16
    4088:	89400234 	orhi	r5,r17,8
    408c:	10bfffc4 	addi	r2,r2,-1
    4090:	b02b883a 	mov	r21,r22
    4094:	288a703a 	and	r5,r5,r2
    4098:	4029883a 	mov	r20,r8
    409c:	003eff06 	br	3c9c <_gp+0xffff587c>

000040a0 <__subdf3>:
    40a0:	02000434 	movhi	r8,16
    40a4:	423fffc4 	addi	r8,r8,-1
    40a8:	defffb04 	addi	sp,sp,-20
    40ac:	2a14703a 	and	r10,r5,r8
    40b0:	3812d53a 	srli	r9,r7,20
    40b4:	3a10703a 	and	r8,r7,r8
    40b8:	2006d77a 	srli	r3,r4,29
    40bc:	3004d77a 	srli	r2,r6,29
    40c0:	dc000015 	stw	r16,0(sp)
    40c4:	501490fa 	slli	r10,r10,3
    40c8:	2820d53a 	srli	r16,r5,20
    40cc:	401090fa 	slli	r8,r8,3
    40d0:	dc800215 	stw	r18,8(sp)
    40d4:	dc400115 	stw	r17,4(sp)
    40d8:	dfc00415 	stw	ra,16(sp)
    40dc:	202290fa 	slli	r17,r4,3
    40e0:	dcc00315 	stw	r19,12(sp)
    40e4:	4a41ffcc 	andi	r9,r9,2047
    40e8:	0101ffc4 	movi	r4,2047
    40ec:	2824d7fa 	srli	r18,r5,31
    40f0:	8401ffcc 	andi	r16,r16,2047
    40f4:	50c6b03a 	or	r3,r10,r3
    40f8:	380ed7fa 	srli	r7,r7,31
    40fc:	408ab03a 	or	r5,r8,r2
    4100:	300c90fa 	slli	r6,r6,3
    4104:	49009626 	beq	r9,r4,4360 <__subdf3+0x2c0>
    4108:	39c0005c 	xori	r7,r7,1
    410c:	8245c83a 	sub	r2,r16,r9
    4110:	3c807426 	beq	r7,r18,42e4 <__subdf3+0x244>
    4114:	0080af0e 	bge	zero,r2,43d4 <__subdf3+0x334>
    4118:	48002a1e 	bne	r9,zero,41c4 <__subdf3+0x124>
    411c:	2988b03a 	or	r4,r5,r6
    4120:	20009a1e 	bne	r4,zero,438c <__subdf3+0x2ec>
    4124:	888001cc 	andi	r2,r17,7
    4128:	10000726 	beq	r2,zero,4148 <__subdf3+0xa8>
    412c:	888003cc 	andi	r2,r17,15
    4130:	01000104 	movi	r4,4
    4134:	11000426 	beq	r2,r4,4148 <__subdf3+0xa8>
    4138:	890b883a 	add	r5,r17,r4
    413c:	2c63803a 	cmpltu	r17,r5,r17
    4140:	1c47883a 	add	r3,r3,r17
    4144:	2823883a 	mov	r17,r5
    4148:	1880202c 	andhi	r2,r3,128
    414c:	10005926 	beq	r2,zero,42b4 <__subdf3+0x214>
    4150:	84000044 	addi	r16,r16,1
    4154:	0081ffc4 	movi	r2,2047
    4158:	8080be26 	beq	r16,r2,4454 <__subdf3+0x3b4>
    415c:	017fe034 	movhi	r5,65408
    4160:	297fffc4 	addi	r5,r5,-1
    4164:	1946703a 	and	r3,r3,r5
    4168:	1804977a 	slli	r2,r3,29
    416c:	1806927a 	slli	r3,r3,9
    4170:	8822d0fa 	srli	r17,r17,3
    4174:	8401ffcc 	andi	r16,r16,2047
    4178:	180ad33a 	srli	r5,r3,12
    417c:	9100004c 	andi	r4,r18,1
    4180:	1444b03a 	or	r2,r2,r17
    4184:	80c1ffcc 	andi	r3,r16,2047
    4188:	1820953a 	slli	r16,r3,20
    418c:	20c03fcc 	andi	r3,r4,255
    4190:	180897fa 	slli	r4,r3,31
    4194:	00c00434 	movhi	r3,16
    4198:	18ffffc4 	addi	r3,r3,-1
    419c:	28c6703a 	and	r3,r5,r3
    41a0:	1c06b03a 	or	r3,r3,r16
    41a4:	1906b03a 	or	r3,r3,r4
    41a8:	dfc00417 	ldw	ra,16(sp)
    41ac:	dcc00317 	ldw	r19,12(sp)
    41b0:	dc800217 	ldw	r18,8(sp)
    41b4:	dc400117 	ldw	r17,4(sp)
    41b8:	dc000017 	ldw	r16,0(sp)
    41bc:	dec00504 	addi	sp,sp,20
    41c0:	f800283a 	ret
    41c4:	0101ffc4 	movi	r4,2047
    41c8:	813fd626 	beq	r16,r4,4124 <_gp+0xffff5d04>
    41cc:	29402034 	orhi	r5,r5,128
    41d0:	01000e04 	movi	r4,56
    41d4:	2080a316 	blt	r4,r2,4464 <__subdf3+0x3c4>
    41d8:	010007c4 	movi	r4,31
    41dc:	2080c616 	blt	r4,r2,44f8 <__subdf3+0x458>
    41e0:	01000804 	movi	r4,32
    41e4:	2089c83a 	sub	r4,r4,r2
    41e8:	2910983a 	sll	r8,r5,r4
    41ec:	308ed83a 	srl	r7,r6,r2
    41f0:	3108983a 	sll	r4,r6,r4
    41f4:	2884d83a 	srl	r2,r5,r2
    41f8:	41ccb03a 	or	r6,r8,r7
    41fc:	2008c03a 	cmpne	r4,r4,zero
    4200:	310cb03a 	or	r6,r6,r4
    4204:	898dc83a 	sub	r6,r17,r6
    4208:	89a3803a 	cmpltu	r17,r17,r6
    420c:	1887c83a 	sub	r3,r3,r2
    4210:	1c47c83a 	sub	r3,r3,r17
    4214:	3023883a 	mov	r17,r6
    4218:	1880202c 	andhi	r2,r3,128
    421c:	10002326 	beq	r2,zero,42ac <__subdf3+0x20c>
    4220:	04c02034 	movhi	r19,128
    4224:	9cffffc4 	addi	r19,r19,-1
    4228:	1ce6703a 	and	r19,r3,r19
    422c:	98007a26 	beq	r19,zero,4418 <__subdf3+0x378>
    4230:	9809883a 	mov	r4,r19
    4234:	0004ba00 	call	4ba0 <__clzsi2>
    4238:	113ffe04 	addi	r4,r2,-8
    423c:	00c007c4 	movi	r3,31
    4240:	19007b16 	blt	r3,r4,4430 <__subdf3+0x390>
    4244:	00800804 	movi	r2,32
    4248:	1105c83a 	sub	r2,r2,r4
    424c:	8884d83a 	srl	r2,r17,r2
    4250:	9906983a 	sll	r3,r19,r4
    4254:	8922983a 	sll	r17,r17,r4
    4258:	10c4b03a 	or	r2,r2,r3
    425c:	24007816 	blt	r4,r16,4440 <__subdf3+0x3a0>
    4260:	2421c83a 	sub	r16,r4,r16
    4264:	80c00044 	addi	r3,r16,1
    4268:	010007c4 	movi	r4,31
    426c:	20c09516 	blt	r4,r3,44c4 <__subdf3+0x424>
    4270:	01400804 	movi	r5,32
    4274:	28cbc83a 	sub	r5,r5,r3
    4278:	88c8d83a 	srl	r4,r17,r3
    427c:	8962983a 	sll	r17,r17,r5
    4280:	114a983a 	sll	r5,r2,r5
    4284:	10c6d83a 	srl	r3,r2,r3
    4288:	8804c03a 	cmpne	r2,r17,zero
    428c:	290ab03a 	or	r5,r5,r4
    4290:	28a2b03a 	or	r17,r5,r2
    4294:	0021883a 	mov	r16,zero
    4298:	003fa206 	br	4124 <_gp+0xffff5d04>
    429c:	2090b03a 	or	r8,r4,r2
    42a0:	40018e26 	beq	r8,zero,48dc <__subdf3+0x83c>
    42a4:	1007883a 	mov	r3,r2
    42a8:	2023883a 	mov	r17,r4
    42ac:	888001cc 	andi	r2,r17,7
    42b0:	103f9e1e 	bne	r2,zero,412c <_gp+0xffff5d0c>
    42b4:	1804977a 	slli	r2,r3,29
    42b8:	8822d0fa 	srli	r17,r17,3
    42bc:	1810d0fa 	srli	r8,r3,3
    42c0:	9100004c 	andi	r4,r18,1
    42c4:	1444b03a 	or	r2,r2,r17
    42c8:	00c1ffc4 	movi	r3,2047
    42cc:	80c02826 	beq	r16,r3,4370 <__subdf3+0x2d0>
    42d0:	01400434 	movhi	r5,16
    42d4:	297fffc4 	addi	r5,r5,-1
    42d8:	80e0703a 	and	r16,r16,r3
    42dc:	414a703a 	and	r5,r8,r5
    42e0:	003fa806 	br	4184 <_gp+0xffff5d64>
    42e4:	0080630e 	bge	zero,r2,4474 <__subdf3+0x3d4>
    42e8:	48003026 	beq	r9,zero,43ac <__subdf3+0x30c>
    42ec:	0101ffc4 	movi	r4,2047
    42f0:	813f8c26 	beq	r16,r4,4124 <_gp+0xffff5d04>
    42f4:	29402034 	orhi	r5,r5,128
    42f8:	01000e04 	movi	r4,56
    42fc:	2080a90e 	bge	r4,r2,45a4 <__subdf3+0x504>
    4300:	298cb03a 	or	r6,r5,r6
    4304:	3012c03a 	cmpne	r9,r6,zero
    4308:	0005883a 	mov	r2,zero
    430c:	4c53883a 	add	r9,r9,r17
    4310:	4c63803a 	cmpltu	r17,r9,r17
    4314:	10c7883a 	add	r3,r2,r3
    4318:	88c7883a 	add	r3,r17,r3
    431c:	4823883a 	mov	r17,r9
    4320:	1880202c 	andhi	r2,r3,128
    4324:	1000d026 	beq	r2,zero,4668 <__subdf3+0x5c8>
    4328:	84000044 	addi	r16,r16,1
    432c:	0081ffc4 	movi	r2,2047
    4330:	8080fe26 	beq	r16,r2,472c <__subdf3+0x68c>
    4334:	00bfe034 	movhi	r2,65408
    4338:	10bfffc4 	addi	r2,r2,-1
    433c:	1886703a 	and	r3,r3,r2
    4340:	880ad07a 	srli	r5,r17,1
    4344:	180497fa 	slli	r2,r3,31
    4348:	8900004c 	andi	r4,r17,1
    434c:	2922b03a 	or	r17,r5,r4
    4350:	1806d07a 	srli	r3,r3,1
    4354:	1462b03a 	or	r17,r2,r17
    4358:	3825883a 	mov	r18,r7
    435c:	003f7106 	br	4124 <_gp+0xffff5d04>
    4360:	2984b03a 	or	r2,r5,r6
    4364:	103f6826 	beq	r2,zero,4108 <_gp+0xffff5ce8>
    4368:	39c03fcc 	andi	r7,r7,255
    436c:	003f6706 	br	410c <_gp+0xffff5cec>
    4370:	4086b03a 	or	r3,r8,r2
    4374:	18015226 	beq	r3,zero,48c0 <__subdf3+0x820>
    4378:	00c00434 	movhi	r3,16
    437c:	41400234 	orhi	r5,r8,8
    4380:	18ffffc4 	addi	r3,r3,-1
    4384:	28ca703a 	and	r5,r5,r3
    4388:	003f7e06 	br	4184 <_gp+0xffff5d64>
    438c:	10bfffc4 	addi	r2,r2,-1
    4390:	1000491e 	bne	r2,zero,44b8 <__subdf3+0x418>
    4394:	898fc83a 	sub	r7,r17,r6
    4398:	89e3803a 	cmpltu	r17,r17,r7
    439c:	1947c83a 	sub	r3,r3,r5
    43a0:	1c47c83a 	sub	r3,r3,r17
    43a4:	3823883a 	mov	r17,r7
    43a8:	003f9b06 	br	4218 <_gp+0xffff5df8>
    43ac:	2988b03a 	or	r4,r5,r6
    43b0:	203f5c26 	beq	r4,zero,4124 <_gp+0xffff5d04>
    43b4:	10bfffc4 	addi	r2,r2,-1
    43b8:	1000931e 	bne	r2,zero,4608 <__subdf3+0x568>
    43bc:	898d883a 	add	r6,r17,r6
    43c0:	3463803a 	cmpltu	r17,r6,r17
    43c4:	1947883a 	add	r3,r3,r5
    43c8:	88c7883a 	add	r3,r17,r3
    43cc:	3023883a 	mov	r17,r6
    43d0:	003fd306 	br	4320 <_gp+0xffff5f00>
    43d4:	1000541e 	bne	r2,zero,4528 <__subdf3+0x488>
    43d8:	80800044 	addi	r2,r16,1
    43dc:	1081ffcc 	andi	r2,r2,2047
    43e0:	01000044 	movi	r4,1
    43e4:	2080a20e 	bge	r4,r2,4670 <__subdf3+0x5d0>
    43e8:	8989c83a 	sub	r4,r17,r6
    43ec:	8905803a 	cmpltu	r2,r17,r4
    43f0:	1967c83a 	sub	r19,r3,r5
    43f4:	98a7c83a 	sub	r19,r19,r2
    43f8:	9880202c 	andhi	r2,r19,128
    43fc:	10006326 	beq	r2,zero,458c <__subdf3+0x4ec>
    4400:	3463c83a 	sub	r17,r6,r17
    4404:	28c7c83a 	sub	r3,r5,r3
    4408:	344d803a 	cmpltu	r6,r6,r17
    440c:	19a7c83a 	sub	r19,r3,r6
    4410:	3825883a 	mov	r18,r7
    4414:	983f861e 	bne	r19,zero,4230 <_gp+0xffff5e10>
    4418:	8809883a 	mov	r4,r17
    441c:	0004ba00 	call	4ba0 <__clzsi2>
    4420:	10800804 	addi	r2,r2,32
    4424:	113ffe04 	addi	r4,r2,-8
    4428:	00c007c4 	movi	r3,31
    442c:	193f850e 	bge	r3,r4,4244 <_gp+0xffff5e24>
    4430:	10bff604 	addi	r2,r2,-40
    4434:	8884983a 	sll	r2,r17,r2
    4438:	0023883a 	mov	r17,zero
    443c:	243f880e 	bge	r4,r16,4260 <_gp+0xffff5e40>
    4440:	00ffe034 	movhi	r3,65408
    4444:	18ffffc4 	addi	r3,r3,-1
    4448:	8121c83a 	sub	r16,r16,r4
    444c:	10c6703a 	and	r3,r2,r3
    4450:	003f3406 	br	4124 <_gp+0xffff5d04>
    4454:	9100004c 	andi	r4,r18,1
    4458:	000b883a 	mov	r5,zero
    445c:	0005883a 	mov	r2,zero
    4460:	003f4806 	br	4184 <_gp+0xffff5d64>
    4464:	298cb03a 	or	r6,r5,r6
    4468:	300cc03a 	cmpne	r6,r6,zero
    446c:	0005883a 	mov	r2,zero
    4470:	003f6406 	br	4204 <_gp+0xffff5de4>
    4474:	10009a1e 	bne	r2,zero,46e0 <__subdf3+0x640>
    4478:	82400044 	addi	r9,r16,1
    447c:	4881ffcc 	andi	r2,r9,2047
    4480:	02800044 	movi	r10,1
    4484:	5080670e 	bge	r10,r2,4624 <__subdf3+0x584>
    4488:	0081ffc4 	movi	r2,2047
    448c:	4880af26 	beq	r9,r2,474c <__subdf3+0x6ac>
    4490:	898d883a 	add	r6,r17,r6
    4494:	1945883a 	add	r2,r3,r5
    4498:	3447803a 	cmpltu	r3,r6,r17
    449c:	1887883a 	add	r3,r3,r2
    44a0:	182297fa 	slli	r17,r3,31
    44a4:	300cd07a 	srli	r6,r6,1
    44a8:	1806d07a 	srli	r3,r3,1
    44ac:	4821883a 	mov	r16,r9
    44b0:	89a2b03a 	or	r17,r17,r6
    44b4:	003f1b06 	br	4124 <_gp+0xffff5d04>
    44b8:	0101ffc4 	movi	r4,2047
    44bc:	813f441e 	bne	r16,r4,41d0 <_gp+0xffff5db0>
    44c0:	003f1806 	br	4124 <_gp+0xffff5d04>
    44c4:	843ff844 	addi	r16,r16,-31
    44c8:	01400804 	movi	r5,32
    44cc:	1408d83a 	srl	r4,r2,r16
    44d0:	19405026 	beq	r3,r5,4614 <__subdf3+0x574>
    44d4:	01401004 	movi	r5,64
    44d8:	28c7c83a 	sub	r3,r5,r3
    44dc:	10c4983a 	sll	r2,r2,r3
    44e0:	88a2b03a 	or	r17,r17,r2
    44e4:	8822c03a 	cmpne	r17,r17,zero
    44e8:	2462b03a 	or	r17,r4,r17
    44ec:	0007883a 	mov	r3,zero
    44f0:	0021883a 	mov	r16,zero
    44f4:	003f6d06 	br	42ac <_gp+0xffff5e8c>
    44f8:	11fff804 	addi	r7,r2,-32
    44fc:	01000804 	movi	r4,32
    4500:	29ced83a 	srl	r7,r5,r7
    4504:	11004526 	beq	r2,r4,461c <__subdf3+0x57c>
    4508:	01001004 	movi	r4,64
    450c:	2089c83a 	sub	r4,r4,r2
    4510:	2904983a 	sll	r2,r5,r4
    4514:	118cb03a 	or	r6,r2,r6
    4518:	300cc03a 	cmpne	r6,r6,zero
    451c:	398cb03a 	or	r6,r7,r6
    4520:	0005883a 	mov	r2,zero
    4524:	003f3706 	br	4204 <_gp+0xffff5de4>
    4528:	80002a26 	beq	r16,zero,45d4 <__subdf3+0x534>
    452c:	0101ffc4 	movi	r4,2047
    4530:	49006626 	beq	r9,r4,46cc <__subdf3+0x62c>
    4534:	0085c83a 	sub	r2,zero,r2
    4538:	18c02034 	orhi	r3,r3,128
    453c:	01000e04 	movi	r4,56
    4540:	20807e16 	blt	r4,r2,473c <__subdf3+0x69c>
    4544:	010007c4 	movi	r4,31
    4548:	2080e716 	blt	r4,r2,48e8 <__subdf3+0x848>
    454c:	01000804 	movi	r4,32
    4550:	2089c83a 	sub	r4,r4,r2
    4554:	1914983a 	sll	r10,r3,r4
    4558:	8890d83a 	srl	r8,r17,r2
    455c:	8908983a 	sll	r4,r17,r4
    4560:	1884d83a 	srl	r2,r3,r2
    4564:	5222b03a 	or	r17,r10,r8
    4568:	2006c03a 	cmpne	r3,r4,zero
    456c:	88e2b03a 	or	r17,r17,r3
    4570:	3463c83a 	sub	r17,r6,r17
    4574:	2885c83a 	sub	r2,r5,r2
    4578:	344d803a 	cmpltu	r6,r6,r17
    457c:	1187c83a 	sub	r3,r2,r6
    4580:	4821883a 	mov	r16,r9
    4584:	3825883a 	mov	r18,r7
    4588:	003f2306 	br	4218 <_gp+0xffff5df8>
    458c:	24d0b03a 	or	r8,r4,r19
    4590:	40001b1e 	bne	r8,zero,4600 <__subdf3+0x560>
    4594:	0005883a 	mov	r2,zero
    4598:	0009883a 	mov	r4,zero
    459c:	0021883a 	mov	r16,zero
    45a0:	003f4906 	br	42c8 <_gp+0xffff5ea8>
    45a4:	010007c4 	movi	r4,31
    45a8:	20803a16 	blt	r4,r2,4694 <__subdf3+0x5f4>
    45ac:	01000804 	movi	r4,32
    45b0:	2089c83a 	sub	r4,r4,r2
    45b4:	2912983a 	sll	r9,r5,r4
    45b8:	3090d83a 	srl	r8,r6,r2
    45bc:	3108983a 	sll	r4,r6,r4
    45c0:	2884d83a 	srl	r2,r5,r2
    45c4:	4a12b03a 	or	r9,r9,r8
    45c8:	2008c03a 	cmpne	r4,r4,zero
    45cc:	4912b03a 	or	r9,r9,r4
    45d0:	003f4e06 	br	430c <_gp+0xffff5eec>
    45d4:	1c48b03a 	or	r4,r3,r17
    45d8:	20003c26 	beq	r4,zero,46cc <__subdf3+0x62c>
    45dc:	0084303a 	nor	r2,zero,r2
    45e0:	1000381e 	bne	r2,zero,46c4 <__subdf3+0x624>
    45e4:	3463c83a 	sub	r17,r6,r17
    45e8:	28c5c83a 	sub	r2,r5,r3
    45ec:	344d803a 	cmpltu	r6,r6,r17
    45f0:	1187c83a 	sub	r3,r2,r6
    45f4:	4821883a 	mov	r16,r9
    45f8:	3825883a 	mov	r18,r7
    45fc:	003f0606 	br	4218 <_gp+0xffff5df8>
    4600:	2023883a 	mov	r17,r4
    4604:	003f0906 	br	422c <_gp+0xffff5e0c>
    4608:	0101ffc4 	movi	r4,2047
    460c:	813f3a1e 	bne	r16,r4,42f8 <_gp+0xffff5ed8>
    4610:	003ec406 	br	4124 <_gp+0xffff5d04>
    4614:	0005883a 	mov	r2,zero
    4618:	003fb106 	br	44e0 <_gp+0xffff60c0>
    461c:	0005883a 	mov	r2,zero
    4620:	003fbc06 	br	4514 <_gp+0xffff60f4>
    4624:	1c44b03a 	or	r2,r3,r17
    4628:	80008e1e 	bne	r16,zero,4864 <__subdf3+0x7c4>
    462c:	1000c826 	beq	r2,zero,4950 <__subdf3+0x8b0>
    4630:	2984b03a 	or	r2,r5,r6
    4634:	103ebb26 	beq	r2,zero,4124 <_gp+0xffff5d04>
    4638:	8989883a 	add	r4,r17,r6
    463c:	1945883a 	add	r2,r3,r5
    4640:	2447803a 	cmpltu	r3,r4,r17
    4644:	1887883a 	add	r3,r3,r2
    4648:	1880202c 	andhi	r2,r3,128
    464c:	2023883a 	mov	r17,r4
    4650:	103f1626 	beq	r2,zero,42ac <_gp+0xffff5e8c>
    4654:	00bfe034 	movhi	r2,65408
    4658:	10bfffc4 	addi	r2,r2,-1
    465c:	5021883a 	mov	r16,r10
    4660:	1886703a 	and	r3,r3,r2
    4664:	003eaf06 	br	4124 <_gp+0xffff5d04>
    4668:	3825883a 	mov	r18,r7
    466c:	003f0f06 	br	42ac <_gp+0xffff5e8c>
    4670:	1c44b03a 	or	r2,r3,r17
    4674:	8000251e 	bne	r16,zero,470c <__subdf3+0x66c>
    4678:	1000661e 	bne	r2,zero,4814 <__subdf3+0x774>
    467c:	2990b03a 	or	r8,r5,r6
    4680:	40009626 	beq	r8,zero,48dc <__subdf3+0x83c>
    4684:	2807883a 	mov	r3,r5
    4688:	3023883a 	mov	r17,r6
    468c:	3825883a 	mov	r18,r7
    4690:	003ea406 	br	4124 <_gp+0xffff5d04>
    4694:	127ff804 	addi	r9,r2,-32
    4698:	01000804 	movi	r4,32
    469c:	2a52d83a 	srl	r9,r5,r9
    46a0:	11008c26 	beq	r2,r4,48d4 <__subdf3+0x834>
    46a4:	01001004 	movi	r4,64
    46a8:	2085c83a 	sub	r2,r4,r2
    46ac:	2884983a 	sll	r2,r5,r2
    46b0:	118cb03a 	or	r6,r2,r6
    46b4:	300cc03a 	cmpne	r6,r6,zero
    46b8:	4992b03a 	or	r9,r9,r6
    46bc:	0005883a 	mov	r2,zero
    46c0:	003f1206 	br	430c <_gp+0xffff5eec>
    46c4:	0101ffc4 	movi	r4,2047
    46c8:	493f9c1e 	bne	r9,r4,453c <_gp+0xffff611c>
    46cc:	2807883a 	mov	r3,r5
    46d0:	3023883a 	mov	r17,r6
    46d4:	4821883a 	mov	r16,r9
    46d8:	3825883a 	mov	r18,r7
    46dc:	003e9106 	br	4124 <_gp+0xffff5d04>
    46e0:	80001f1e 	bne	r16,zero,4760 <__subdf3+0x6c0>
    46e4:	1c48b03a 	or	r4,r3,r17
    46e8:	20005a26 	beq	r4,zero,4854 <__subdf3+0x7b4>
    46ec:	0084303a 	nor	r2,zero,r2
    46f0:	1000561e 	bne	r2,zero,484c <__subdf3+0x7ac>
    46f4:	89a3883a 	add	r17,r17,r6
    46f8:	1945883a 	add	r2,r3,r5
    46fc:	898d803a 	cmpltu	r6,r17,r6
    4700:	3087883a 	add	r3,r6,r2
    4704:	4821883a 	mov	r16,r9
    4708:	003f0506 	br	4320 <_gp+0xffff5f00>
    470c:	10002b1e 	bne	r2,zero,47bc <__subdf3+0x71c>
    4710:	2984b03a 	or	r2,r5,r6
    4714:	10008026 	beq	r2,zero,4918 <__subdf3+0x878>
    4718:	2807883a 	mov	r3,r5
    471c:	3023883a 	mov	r17,r6
    4720:	3825883a 	mov	r18,r7
    4724:	0401ffc4 	movi	r16,2047
    4728:	003e7e06 	br	4124 <_gp+0xffff5d04>
    472c:	3809883a 	mov	r4,r7
    4730:	0011883a 	mov	r8,zero
    4734:	0005883a 	mov	r2,zero
    4738:	003ee306 	br	42c8 <_gp+0xffff5ea8>
    473c:	1c62b03a 	or	r17,r3,r17
    4740:	8822c03a 	cmpne	r17,r17,zero
    4744:	0005883a 	mov	r2,zero
    4748:	003f8906 	br	4570 <_gp+0xffff6150>
    474c:	3809883a 	mov	r4,r7
    4750:	4821883a 	mov	r16,r9
    4754:	0011883a 	mov	r8,zero
    4758:	0005883a 	mov	r2,zero
    475c:	003eda06 	br	42c8 <_gp+0xffff5ea8>
    4760:	0101ffc4 	movi	r4,2047
    4764:	49003b26 	beq	r9,r4,4854 <__subdf3+0x7b4>
    4768:	0085c83a 	sub	r2,zero,r2
    476c:	18c02034 	orhi	r3,r3,128
    4770:	01000e04 	movi	r4,56
    4774:	20806e16 	blt	r4,r2,4930 <__subdf3+0x890>
    4778:	010007c4 	movi	r4,31
    477c:	20807716 	blt	r4,r2,495c <__subdf3+0x8bc>
    4780:	01000804 	movi	r4,32
    4784:	2089c83a 	sub	r4,r4,r2
    4788:	1914983a 	sll	r10,r3,r4
    478c:	8890d83a 	srl	r8,r17,r2
    4790:	8908983a 	sll	r4,r17,r4
    4794:	1884d83a 	srl	r2,r3,r2
    4798:	5222b03a 	or	r17,r10,r8
    479c:	2006c03a 	cmpne	r3,r4,zero
    47a0:	88e2b03a 	or	r17,r17,r3
    47a4:	89a3883a 	add	r17,r17,r6
    47a8:	1145883a 	add	r2,r2,r5
    47ac:	898d803a 	cmpltu	r6,r17,r6
    47b0:	3087883a 	add	r3,r6,r2
    47b4:	4821883a 	mov	r16,r9
    47b8:	003ed906 	br	4320 <_gp+0xffff5f00>
    47bc:	2984b03a 	or	r2,r5,r6
    47c0:	10004226 	beq	r2,zero,48cc <__subdf3+0x82c>
    47c4:	1808d0fa 	srli	r4,r3,3
    47c8:	8822d0fa 	srli	r17,r17,3
    47cc:	1806977a 	slli	r3,r3,29
    47d0:	2080022c 	andhi	r2,r4,8
    47d4:	1c62b03a 	or	r17,r3,r17
    47d8:	10000826 	beq	r2,zero,47fc <__subdf3+0x75c>
    47dc:	2812d0fa 	srli	r9,r5,3
    47e0:	4880022c 	andhi	r2,r9,8
    47e4:	1000051e 	bne	r2,zero,47fc <__subdf3+0x75c>
    47e8:	300cd0fa 	srli	r6,r6,3
    47ec:	2804977a 	slli	r2,r5,29
    47f0:	4809883a 	mov	r4,r9
    47f4:	3825883a 	mov	r18,r7
    47f8:	11a2b03a 	or	r17,r2,r6
    47fc:	8806d77a 	srli	r3,r17,29
    4800:	200890fa 	slli	r4,r4,3
    4804:	882290fa 	slli	r17,r17,3
    4808:	0401ffc4 	movi	r16,2047
    480c:	1906b03a 	or	r3,r3,r4
    4810:	003e4406 	br	4124 <_gp+0xffff5d04>
    4814:	2984b03a 	or	r2,r5,r6
    4818:	103e4226 	beq	r2,zero,4124 <_gp+0xffff5d04>
    481c:	8989c83a 	sub	r4,r17,r6
    4820:	8911803a 	cmpltu	r8,r17,r4
    4824:	1945c83a 	sub	r2,r3,r5
    4828:	1205c83a 	sub	r2,r2,r8
    482c:	1200202c 	andhi	r8,r2,128
    4830:	403e9a26 	beq	r8,zero,429c <_gp+0xffff5e7c>
    4834:	3463c83a 	sub	r17,r6,r17
    4838:	28c5c83a 	sub	r2,r5,r3
    483c:	344d803a 	cmpltu	r6,r6,r17
    4840:	1187c83a 	sub	r3,r2,r6
    4844:	3825883a 	mov	r18,r7
    4848:	003e3606 	br	4124 <_gp+0xffff5d04>
    484c:	0101ffc4 	movi	r4,2047
    4850:	493fc71e 	bne	r9,r4,4770 <_gp+0xffff6350>
    4854:	2807883a 	mov	r3,r5
    4858:	3023883a 	mov	r17,r6
    485c:	4821883a 	mov	r16,r9
    4860:	003e3006 	br	4124 <_gp+0xffff5d04>
    4864:	10003626 	beq	r2,zero,4940 <__subdf3+0x8a0>
    4868:	2984b03a 	or	r2,r5,r6
    486c:	10001726 	beq	r2,zero,48cc <__subdf3+0x82c>
    4870:	1808d0fa 	srli	r4,r3,3
    4874:	8822d0fa 	srli	r17,r17,3
    4878:	1806977a 	slli	r3,r3,29
    487c:	2080022c 	andhi	r2,r4,8
    4880:	1c62b03a 	or	r17,r3,r17
    4884:	10000726 	beq	r2,zero,48a4 <__subdf3+0x804>
    4888:	2812d0fa 	srli	r9,r5,3
    488c:	4880022c 	andhi	r2,r9,8
    4890:	1000041e 	bne	r2,zero,48a4 <__subdf3+0x804>
    4894:	300cd0fa 	srli	r6,r6,3
    4898:	2804977a 	slli	r2,r5,29
    489c:	4809883a 	mov	r4,r9
    48a0:	11a2b03a 	or	r17,r2,r6
    48a4:	8806d77a 	srli	r3,r17,29
    48a8:	200890fa 	slli	r4,r4,3
    48ac:	882290fa 	slli	r17,r17,3
    48b0:	3825883a 	mov	r18,r7
    48b4:	1906b03a 	or	r3,r3,r4
    48b8:	0401ffc4 	movi	r16,2047
    48bc:	003e1906 	br	4124 <_gp+0xffff5d04>
    48c0:	000b883a 	mov	r5,zero
    48c4:	0005883a 	mov	r2,zero
    48c8:	003e2e06 	br	4184 <_gp+0xffff5d64>
    48cc:	0401ffc4 	movi	r16,2047
    48d0:	003e1406 	br	4124 <_gp+0xffff5d04>
    48d4:	0005883a 	mov	r2,zero
    48d8:	003f7506 	br	46b0 <_gp+0xffff6290>
    48dc:	0005883a 	mov	r2,zero
    48e0:	0009883a 	mov	r4,zero
    48e4:	003e7806 	br	42c8 <_gp+0xffff5ea8>
    48e8:	123ff804 	addi	r8,r2,-32
    48ec:	01000804 	movi	r4,32
    48f0:	1a10d83a 	srl	r8,r3,r8
    48f4:	11002526 	beq	r2,r4,498c <__subdf3+0x8ec>
    48f8:	01001004 	movi	r4,64
    48fc:	2085c83a 	sub	r2,r4,r2
    4900:	1884983a 	sll	r2,r3,r2
    4904:	1444b03a 	or	r2,r2,r17
    4908:	1004c03a 	cmpne	r2,r2,zero
    490c:	40a2b03a 	or	r17,r8,r2
    4910:	0005883a 	mov	r2,zero
    4914:	003f1606 	br	4570 <_gp+0xffff6150>
    4918:	02000434 	movhi	r8,16
    491c:	0009883a 	mov	r4,zero
    4920:	423fffc4 	addi	r8,r8,-1
    4924:	00bfffc4 	movi	r2,-1
    4928:	0401ffc4 	movi	r16,2047
    492c:	003e6606 	br	42c8 <_gp+0xffff5ea8>
    4930:	1c62b03a 	or	r17,r3,r17
    4934:	8822c03a 	cmpne	r17,r17,zero
    4938:	0005883a 	mov	r2,zero
    493c:	003f9906 	br	47a4 <_gp+0xffff6384>
    4940:	2807883a 	mov	r3,r5
    4944:	3023883a 	mov	r17,r6
    4948:	0401ffc4 	movi	r16,2047
    494c:	003df506 	br	4124 <_gp+0xffff5d04>
    4950:	2807883a 	mov	r3,r5
    4954:	3023883a 	mov	r17,r6
    4958:	003df206 	br	4124 <_gp+0xffff5d04>
    495c:	123ff804 	addi	r8,r2,-32
    4960:	01000804 	movi	r4,32
    4964:	1a10d83a 	srl	r8,r3,r8
    4968:	11000a26 	beq	r2,r4,4994 <__subdf3+0x8f4>
    496c:	01001004 	movi	r4,64
    4970:	2085c83a 	sub	r2,r4,r2
    4974:	1884983a 	sll	r2,r3,r2
    4978:	1444b03a 	or	r2,r2,r17
    497c:	1004c03a 	cmpne	r2,r2,zero
    4980:	40a2b03a 	or	r17,r8,r2
    4984:	0005883a 	mov	r2,zero
    4988:	003f8606 	br	47a4 <_gp+0xffff6384>
    498c:	0005883a 	mov	r2,zero
    4990:	003fdc06 	br	4904 <_gp+0xffff64e4>
    4994:	0005883a 	mov	r2,zero
    4998:	003ff706 	br	4978 <_gp+0xffff6558>

0000499c <__fixdfsi>:
    499c:	280cd53a 	srli	r6,r5,20
    49a0:	00c00434 	movhi	r3,16
    49a4:	18ffffc4 	addi	r3,r3,-1
    49a8:	3181ffcc 	andi	r6,r6,2047
    49ac:	01c0ff84 	movi	r7,1022
    49b0:	28c6703a 	and	r3,r5,r3
    49b4:	280ad7fa 	srli	r5,r5,31
    49b8:	3980120e 	bge	r7,r6,4a04 <__fixdfsi+0x68>
    49bc:	00810744 	movi	r2,1053
    49c0:	11800c16 	blt	r2,r6,49f4 <__fixdfsi+0x58>
    49c4:	00810cc4 	movi	r2,1075
    49c8:	1185c83a 	sub	r2,r2,r6
    49cc:	01c007c4 	movi	r7,31
    49d0:	18c00434 	orhi	r3,r3,16
    49d4:	38800d16 	blt	r7,r2,4a0c <__fixdfsi+0x70>
    49d8:	31befb44 	addi	r6,r6,-1043
    49dc:	2084d83a 	srl	r2,r4,r2
    49e0:	1986983a 	sll	r3,r3,r6
    49e4:	1884b03a 	or	r2,r3,r2
    49e8:	28000726 	beq	r5,zero,4a08 <__fixdfsi+0x6c>
    49ec:	0085c83a 	sub	r2,zero,r2
    49f0:	f800283a 	ret
    49f4:	00a00034 	movhi	r2,32768
    49f8:	10bfffc4 	addi	r2,r2,-1
    49fc:	2885883a 	add	r2,r5,r2
    4a00:	f800283a 	ret
    4a04:	0005883a 	mov	r2,zero
    4a08:	f800283a 	ret
    4a0c:	008104c4 	movi	r2,1043
    4a10:	1185c83a 	sub	r2,r2,r6
    4a14:	1884d83a 	srl	r2,r3,r2
    4a18:	003ff306 	br	49e8 <_gp+0xffff65c8>

00004a1c <__floatsidf>:
    4a1c:	defffd04 	addi	sp,sp,-12
    4a20:	dfc00215 	stw	ra,8(sp)
    4a24:	dc400115 	stw	r17,4(sp)
    4a28:	dc000015 	stw	r16,0(sp)
    4a2c:	20002b26 	beq	r4,zero,4adc <__floatsidf+0xc0>
    4a30:	2023883a 	mov	r17,r4
    4a34:	2020d7fa 	srli	r16,r4,31
    4a38:	20002d16 	blt	r4,zero,4af0 <__floatsidf+0xd4>
    4a3c:	8809883a 	mov	r4,r17
    4a40:	0004ba00 	call	4ba0 <__clzsi2>
    4a44:	01410784 	movi	r5,1054
    4a48:	288bc83a 	sub	r5,r5,r2
    4a4c:	01010cc4 	movi	r4,1075
    4a50:	2149c83a 	sub	r4,r4,r5
    4a54:	00c007c4 	movi	r3,31
    4a58:	1900160e 	bge	r3,r4,4ab4 <__floatsidf+0x98>
    4a5c:	00c104c4 	movi	r3,1043
    4a60:	1947c83a 	sub	r3,r3,r5
    4a64:	88c6983a 	sll	r3,r17,r3
    4a68:	00800434 	movhi	r2,16
    4a6c:	10bfffc4 	addi	r2,r2,-1
    4a70:	1886703a 	and	r3,r3,r2
    4a74:	2941ffcc 	andi	r5,r5,2047
    4a78:	800d883a 	mov	r6,r16
    4a7c:	0005883a 	mov	r2,zero
    4a80:	280a953a 	slli	r5,r5,20
    4a84:	31803fcc 	andi	r6,r6,255
    4a88:	01000434 	movhi	r4,16
    4a8c:	300c97fa 	slli	r6,r6,31
    4a90:	213fffc4 	addi	r4,r4,-1
    4a94:	1906703a 	and	r3,r3,r4
    4a98:	1946b03a 	or	r3,r3,r5
    4a9c:	1986b03a 	or	r3,r3,r6
    4aa0:	dfc00217 	ldw	ra,8(sp)
    4aa4:	dc400117 	ldw	r17,4(sp)
    4aa8:	dc000017 	ldw	r16,0(sp)
    4aac:	dec00304 	addi	sp,sp,12
    4ab0:	f800283a 	ret
    4ab4:	00c002c4 	movi	r3,11
    4ab8:	1887c83a 	sub	r3,r3,r2
    4abc:	88c6d83a 	srl	r3,r17,r3
    4ac0:	8904983a 	sll	r2,r17,r4
    4ac4:	01000434 	movhi	r4,16
    4ac8:	213fffc4 	addi	r4,r4,-1
    4acc:	2941ffcc 	andi	r5,r5,2047
    4ad0:	1906703a 	and	r3,r3,r4
    4ad4:	800d883a 	mov	r6,r16
    4ad8:	003fe906 	br	4a80 <_gp+0xffff6660>
    4adc:	000d883a 	mov	r6,zero
    4ae0:	000b883a 	mov	r5,zero
    4ae4:	0007883a 	mov	r3,zero
    4ae8:	0005883a 	mov	r2,zero
    4aec:	003fe406 	br	4a80 <_gp+0xffff6660>
    4af0:	0123c83a 	sub	r17,zero,r4
    4af4:	003fd106 	br	4a3c <_gp+0xffff661c>

00004af8 <__floatunsidf>:
    4af8:	defffe04 	addi	sp,sp,-8
    4afc:	dc000015 	stw	r16,0(sp)
    4b00:	dfc00115 	stw	ra,4(sp)
    4b04:	2021883a 	mov	r16,r4
    4b08:	20002226 	beq	r4,zero,4b94 <__floatunsidf+0x9c>
    4b0c:	0004ba00 	call	4ba0 <__clzsi2>
    4b10:	01010784 	movi	r4,1054
    4b14:	2089c83a 	sub	r4,r4,r2
    4b18:	01810cc4 	movi	r6,1075
    4b1c:	310dc83a 	sub	r6,r6,r4
    4b20:	00c007c4 	movi	r3,31
    4b24:	1980120e 	bge	r3,r6,4b70 <__floatunsidf+0x78>
    4b28:	00c104c4 	movi	r3,1043
    4b2c:	1907c83a 	sub	r3,r3,r4
    4b30:	80ca983a 	sll	r5,r16,r3
    4b34:	00800434 	movhi	r2,16
    4b38:	10bfffc4 	addi	r2,r2,-1
    4b3c:	2101ffcc 	andi	r4,r4,2047
    4b40:	0021883a 	mov	r16,zero
    4b44:	288a703a 	and	r5,r5,r2
    4b48:	2008953a 	slli	r4,r4,20
    4b4c:	00c00434 	movhi	r3,16
    4b50:	18ffffc4 	addi	r3,r3,-1
    4b54:	28c6703a 	and	r3,r5,r3
    4b58:	8005883a 	mov	r2,r16
    4b5c:	1906b03a 	or	r3,r3,r4
    4b60:	dfc00117 	ldw	ra,4(sp)
    4b64:	dc000017 	ldw	r16,0(sp)
    4b68:	dec00204 	addi	sp,sp,8
    4b6c:	f800283a 	ret
    4b70:	00c002c4 	movi	r3,11
    4b74:	188bc83a 	sub	r5,r3,r2
    4b78:	814ad83a 	srl	r5,r16,r5
    4b7c:	00c00434 	movhi	r3,16
    4b80:	18ffffc4 	addi	r3,r3,-1
    4b84:	81a0983a 	sll	r16,r16,r6
    4b88:	2101ffcc 	andi	r4,r4,2047
    4b8c:	28ca703a 	and	r5,r5,r3
    4b90:	003fed06 	br	4b48 <_gp+0xffff6728>
    4b94:	0009883a 	mov	r4,zero
    4b98:	000b883a 	mov	r5,zero
    4b9c:	003fea06 	br	4b48 <_gp+0xffff6728>

00004ba0 <__clzsi2>:
    4ba0:	00bfffd4 	movui	r2,65535
    4ba4:	11000536 	bltu	r2,r4,4bbc <__clzsi2+0x1c>
    4ba8:	00803fc4 	movi	r2,255
    4bac:	11000f36 	bltu	r2,r4,4bec <__clzsi2+0x4c>
    4bb0:	00800804 	movi	r2,32
    4bb4:	0007883a 	mov	r3,zero
    4bb8:	00000506 	br	4bd0 <__clzsi2+0x30>
    4bbc:	00804034 	movhi	r2,256
    4bc0:	10bfffc4 	addi	r2,r2,-1
    4bc4:	11000c2e 	bgeu	r2,r4,4bf8 <__clzsi2+0x58>
    4bc8:	00800204 	movi	r2,8
    4bcc:	00c00604 	movi	r3,24
    4bd0:	20c8d83a 	srl	r4,r4,r3
    4bd4:	00c00034 	movhi	r3,0
    4bd8:	18d87b04 	addi	r3,r3,25068
    4bdc:	1909883a 	add	r4,r3,r4
    4be0:	20c00003 	ldbu	r3,0(r4)
    4be4:	10c5c83a 	sub	r2,r2,r3
    4be8:	f800283a 	ret
    4bec:	00800604 	movi	r2,24
    4bf0:	00c00204 	movi	r3,8
    4bf4:	003ff606 	br	4bd0 <_gp+0xffff67b0>
    4bf8:	00800404 	movi	r2,16
    4bfc:	1007883a 	mov	r3,r2
    4c00:	003ff306 	br	4bd0 <_gp+0xffff67b0>

00004c04 <__divsi3>:
    4c04:	20001b16 	blt	r4,zero,4c74 <__divsi3+0x70>
    4c08:	000f883a 	mov	r7,zero
    4c0c:	28001616 	blt	r5,zero,4c68 <__divsi3+0x64>
    4c10:	200d883a 	mov	r6,r4
    4c14:	29001a2e 	bgeu	r5,r4,4c80 <__divsi3+0x7c>
    4c18:	00800804 	movi	r2,32
    4c1c:	00c00044 	movi	r3,1
    4c20:	00000106 	br	4c28 <__divsi3+0x24>
    4c24:	10000d26 	beq	r2,zero,4c5c <__divsi3+0x58>
    4c28:	294b883a 	add	r5,r5,r5
    4c2c:	10bfffc4 	addi	r2,r2,-1
    4c30:	18c7883a 	add	r3,r3,r3
    4c34:	293ffb36 	bltu	r5,r4,4c24 <_gp+0xffff6804>
    4c38:	0005883a 	mov	r2,zero
    4c3c:	18000726 	beq	r3,zero,4c5c <__divsi3+0x58>
    4c40:	0005883a 	mov	r2,zero
    4c44:	31400236 	bltu	r6,r5,4c50 <__divsi3+0x4c>
    4c48:	314dc83a 	sub	r6,r6,r5
    4c4c:	10c4b03a 	or	r2,r2,r3
    4c50:	1806d07a 	srli	r3,r3,1
    4c54:	280ad07a 	srli	r5,r5,1
    4c58:	183ffa1e 	bne	r3,zero,4c44 <_gp+0xffff6824>
    4c5c:	38000126 	beq	r7,zero,4c64 <__divsi3+0x60>
    4c60:	0085c83a 	sub	r2,zero,r2
    4c64:	f800283a 	ret
    4c68:	014bc83a 	sub	r5,zero,r5
    4c6c:	39c0005c 	xori	r7,r7,1
    4c70:	003fe706 	br	4c10 <_gp+0xffff67f0>
    4c74:	0109c83a 	sub	r4,zero,r4
    4c78:	01c00044 	movi	r7,1
    4c7c:	003fe306 	br	4c0c <_gp+0xffff67ec>
    4c80:	00c00044 	movi	r3,1
    4c84:	003fee06 	br	4c40 <_gp+0xffff6820>

00004c88 <__modsi3>:
    4c88:	20001716 	blt	r4,zero,4ce8 <__modsi3+0x60>
    4c8c:	000f883a 	mov	r7,zero
    4c90:	2005883a 	mov	r2,r4
    4c94:	28001216 	blt	r5,zero,4ce0 <__modsi3+0x58>
    4c98:	2900162e 	bgeu	r5,r4,4cf4 <__modsi3+0x6c>
    4c9c:	01800804 	movi	r6,32
    4ca0:	00c00044 	movi	r3,1
    4ca4:	00000106 	br	4cac <__modsi3+0x24>
    4ca8:	30000a26 	beq	r6,zero,4cd4 <__modsi3+0x4c>
    4cac:	294b883a 	add	r5,r5,r5
    4cb0:	31bfffc4 	addi	r6,r6,-1
    4cb4:	18c7883a 	add	r3,r3,r3
    4cb8:	293ffb36 	bltu	r5,r4,4ca8 <_gp+0xffff6888>
    4cbc:	18000526 	beq	r3,zero,4cd4 <__modsi3+0x4c>
    4cc0:	1806d07a 	srli	r3,r3,1
    4cc4:	11400136 	bltu	r2,r5,4ccc <__modsi3+0x44>
    4cc8:	1145c83a 	sub	r2,r2,r5
    4ccc:	280ad07a 	srli	r5,r5,1
    4cd0:	183ffb1e 	bne	r3,zero,4cc0 <_gp+0xffff68a0>
    4cd4:	38000126 	beq	r7,zero,4cdc <__modsi3+0x54>
    4cd8:	0085c83a 	sub	r2,zero,r2
    4cdc:	f800283a 	ret
    4ce0:	014bc83a 	sub	r5,zero,r5
    4ce4:	003fec06 	br	4c98 <_gp+0xffff6878>
    4ce8:	0109c83a 	sub	r4,zero,r4
    4cec:	01c00044 	movi	r7,1
    4cf0:	003fe706 	br	4c90 <_gp+0xffff6870>
    4cf4:	00c00044 	movi	r3,1
    4cf8:	003ff106 	br	4cc0 <_gp+0xffff68a0>

00004cfc <__udivsi3>:
    4cfc:	200d883a 	mov	r6,r4
    4d00:	2900152e 	bgeu	r5,r4,4d58 <__udivsi3+0x5c>
    4d04:	28001416 	blt	r5,zero,4d58 <__udivsi3+0x5c>
    4d08:	00800804 	movi	r2,32
    4d0c:	00c00044 	movi	r3,1
    4d10:	00000206 	br	4d1c <__udivsi3+0x20>
    4d14:	10000e26 	beq	r2,zero,4d50 <__udivsi3+0x54>
    4d18:	28000516 	blt	r5,zero,4d30 <__udivsi3+0x34>
    4d1c:	294b883a 	add	r5,r5,r5
    4d20:	10bfffc4 	addi	r2,r2,-1
    4d24:	18c7883a 	add	r3,r3,r3
    4d28:	293ffa36 	bltu	r5,r4,4d14 <_gp+0xffff68f4>
    4d2c:	18000826 	beq	r3,zero,4d50 <__udivsi3+0x54>
    4d30:	0005883a 	mov	r2,zero
    4d34:	31400236 	bltu	r6,r5,4d40 <__udivsi3+0x44>
    4d38:	314dc83a 	sub	r6,r6,r5
    4d3c:	10c4b03a 	or	r2,r2,r3
    4d40:	1806d07a 	srli	r3,r3,1
    4d44:	280ad07a 	srli	r5,r5,1
    4d48:	183ffa1e 	bne	r3,zero,4d34 <_gp+0xffff6914>
    4d4c:	f800283a 	ret
    4d50:	0005883a 	mov	r2,zero
    4d54:	f800283a 	ret
    4d58:	00c00044 	movi	r3,1
    4d5c:	003ff406 	br	4d30 <_gp+0xffff6910>

00004d60 <__umodsi3>:
    4d60:	2005883a 	mov	r2,r4
    4d64:	2900122e 	bgeu	r5,r4,4db0 <__umodsi3+0x50>
    4d68:	28001116 	blt	r5,zero,4db0 <__umodsi3+0x50>
    4d6c:	01800804 	movi	r6,32
    4d70:	00c00044 	movi	r3,1
    4d74:	00000206 	br	4d80 <__umodsi3+0x20>
    4d78:	30000c26 	beq	r6,zero,4dac <__umodsi3+0x4c>
    4d7c:	28000516 	blt	r5,zero,4d94 <__umodsi3+0x34>
    4d80:	294b883a 	add	r5,r5,r5
    4d84:	31bfffc4 	addi	r6,r6,-1
    4d88:	18c7883a 	add	r3,r3,r3
    4d8c:	293ffa36 	bltu	r5,r4,4d78 <_gp+0xffff6958>
    4d90:	18000626 	beq	r3,zero,4dac <__umodsi3+0x4c>
    4d94:	1806d07a 	srli	r3,r3,1
    4d98:	11400136 	bltu	r2,r5,4da0 <__umodsi3+0x40>
    4d9c:	1145c83a 	sub	r2,r2,r5
    4da0:	280ad07a 	srli	r5,r5,1
    4da4:	183ffb1e 	bne	r3,zero,4d94 <_gp+0xffff6974>
    4da8:	f800283a 	ret
    4dac:	f800283a 	ret
    4db0:	00c00044 	movi	r3,1
    4db4:	003ff706 	br	4d94 <_gp+0xffff6974>

00004db8 <__errno>:
    4db8:	00800034 	movhi	r2,0
    4dbc:	10990a04 	addi	r2,r2,25640
    4dc0:	10800017 	ldw	r2,0(r2)
    4dc4:	f800283a 	ret

00004dc8 <__itoa>:
    4dc8:	30bfff84 	addi	r2,r6,-2
    4dcc:	00c00884 	movi	r3,34
    4dd0:	1880032e 	bgeu	r3,r2,4de0 <__itoa+0x18>
    4dd4:	28000005 	stb	zero,0(r5)
    4dd8:	0005883a 	mov	r2,zero
    4ddc:	f800283a 	ret
    4de0:	defffe04 	addi	sp,sp,-8
    4de4:	dfc00115 	stw	ra,4(sp)
    4de8:	dc000015 	stw	r16,0(sp)
    4dec:	00800284 	movi	r2,10
    4df0:	3080061e 	bne	r6,r2,4e0c <__itoa+0x44>
    4df4:	2000050e 	bge	r4,zero,4e0c <__itoa+0x44>
    4df8:	00800b44 	movi	r2,45
    4dfc:	28800005 	stb	r2,0(r5)
    4e00:	0109c83a 	sub	r4,zero,r4
    4e04:	00800044 	movi	r2,1
    4e08:	00000106 	br	4e10 <__itoa+0x48>
    4e0c:	0005883a 	mov	r2,zero
    4e10:	2821883a 	mov	r16,r5
    4e14:	288b883a 	add	r5,r5,r2
    4e18:	00052dc0 	call	52dc <__utoa>
    4e1c:	8005883a 	mov	r2,r16
    4e20:	dfc00117 	ldw	ra,4(sp)
    4e24:	dc000017 	ldw	r16,0(sp)
    4e28:	dec00204 	addi	sp,sp,8
    4e2c:	f800283a 	ret

00004e30 <itoa>:
    4e30:	0004dc81 	jmpi	4dc8 <__itoa>

00004e34 <malloc>:
    4e34:	00800034 	movhi	r2,0
    4e38:	10990a04 	addi	r2,r2,25640
    4e3c:	200b883a 	mov	r5,r4
    4e40:	11000017 	ldw	r4,0(r2)
    4e44:	0004f881 	jmpi	4f88 <_malloc_r>

00004e48 <free>:
    4e48:	00800034 	movhi	r2,0
    4e4c:	10990a04 	addi	r2,r2,25640
    4e50:	200b883a 	mov	r5,r4
    4e54:	11000017 	ldw	r4,0(r2)
    4e58:	0004ea41 	jmpi	4ea4 <_free_r>

00004e5c <memcpy>:
    4e5c:	2005883a 	mov	r2,r4
    4e60:	2007883a 	mov	r3,r4
    4e64:	218d883a 	add	r6,r4,r6
    4e68:	19800526 	beq	r3,r6,4e80 <memcpy+0x24>
    4e6c:	29000003 	ldbu	r4,0(r5)
    4e70:	18c00044 	addi	r3,r3,1
    4e74:	29400044 	addi	r5,r5,1
    4e78:	193fffc5 	stb	r4,-1(r3)
    4e7c:	003ffa06 	br	4e68 <_gp+0xffff6a48>
    4e80:	f800283a 	ret

00004e84 <memset>:
    4e84:	2005883a 	mov	r2,r4
    4e88:	2007883a 	mov	r3,r4
    4e8c:	218d883a 	add	r6,r4,r6
    4e90:	19800326 	beq	r3,r6,4ea0 <memset+0x1c>
    4e94:	19400005 	stb	r5,0(r3)
    4e98:	18c00044 	addi	r3,r3,1
    4e9c:	003ffc06 	br	4e90 <_gp+0xffff6a70>
    4ea0:	f800283a 	ret

00004ea4 <_free_r>:
    4ea4:	28003726 	beq	r5,zero,4f84 <_free_r+0xe0>
    4ea8:	28ffff17 	ldw	r3,-4(r5)
    4eac:	28bfff04 	addi	r2,r5,-4
    4eb0:	1800010e 	bge	r3,zero,4eb8 <_free_r+0x14>
    4eb4:	10c5883a 	add	r2,r2,r3
    4eb8:	01400034 	movhi	r5,0
    4ebc:	29595904 	addi	r5,r5,25956
    4ec0:	28c00017 	ldw	r3,0(r5)
    4ec4:	280d883a 	mov	r6,r5
    4ec8:	1800031e 	bne	r3,zero,4ed8 <_free_r+0x34>
    4ecc:	10000115 	stw	zero,4(r2)
    4ed0:	28800015 	stw	r2,0(r5)
    4ed4:	f800283a 	ret
    4ed8:	10c00c2e 	bgeu	r2,r3,4f0c <_free_r+0x68>
    4edc:	11000017 	ldw	r4,0(r2)
    4ee0:	110b883a 	add	r5,r2,r4
    4ee4:	1940041e 	bne	r3,r5,4ef8 <_free_r+0x54>
    4ee8:	19400017 	ldw	r5,0(r3)
    4eec:	18c00117 	ldw	r3,4(r3)
    4ef0:	2909883a 	add	r4,r5,r4
    4ef4:	11000015 	stw	r4,0(r2)
    4ef8:	10c00115 	stw	r3,4(r2)
    4efc:	30800015 	stw	r2,0(r6)
    4f00:	f800283a 	ret
    4f04:	11400336 	bltu	r2,r5,4f14 <_free_r+0x70>
    4f08:	2807883a 	mov	r3,r5
    4f0c:	19400117 	ldw	r5,4(r3)
    4f10:	283ffc1e 	bne	r5,zero,4f04 <_gp+0xffff6ae4>
    4f14:	19c00017 	ldw	r7,0(r3)
    4f18:	19cd883a 	add	r6,r3,r7
    4f1c:	30800a1e 	bne	r6,r2,4f48 <_free_r+0xa4>
    4f20:	10800017 	ldw	r2,0(r2)
    4f24:	3885883a 	add	r2,r7,r2
    4f28:	18800015 	stw	r2,0(r3)
    4f2c:	1889883a 	add	r4,r3,r2
    4f30:	2900141e 	bne	r5,r4,4f84 <_free_r+0xe0>
    4f34:	29000017 	ldw	r4,0(r5)
    4f38:	2085883a 	add	r2,r4,r2
    4f3c:	18800015 	stw	r2,0(r3)
    4f40:	28800117 	ldw	r2,4(r5)
    4f44:	00000e06 	br	4f80 <_free_r+0xdc>
    4f48:	1180032e 	bgeu	r2,r6,4f58 <_free_r+0xb4>
    4f4c:	00800304 	movi	r2,12
    4f50:	20800015 	stw	r2,0(r4)
    4f54:	f800283a 	ret
    4f58:	11000017 	ldw	r4,0(r2)
    4f5c:	110d883a 	add	r6,r2,r4
    4f60:	2980061e 	bne	r5,r6,4f7c <_free_r+0xd8>
    4f64:	29800017 	ldw	r6,0(r5)
    4f68:	3109883a 	add	r4,r6,r4
    4f6c:	11000015 	stw	r4,0(r2)
    4f70:	29000117 	ldw	r4,4(r5)
    4f74:	11000115 	stw	r4,4(r2)
    4f78:	00000106 	br	4f80 <_free_r+0xdc>
    4f7c:	11400115 	stw	r5,4(r2)
    4f80:	18800115 	stw	r2,4(r3)
    4f84:	f800283a 	ret

00004f88 <_malloc_r>:
    4f88:	defffb04 	addi	sp,sp,-20
    4f8c:	00bfff04 	movi	r2,-4
    4f90:	dc400115 	stw	r17,4(sp)
    4f94:	2c4000c4 	addi	r17,r5,3
    4f98:	88a2703a 	and	r17,r17,r2
    4f9c:	dc800215 	stw	r18,8(sp)
    4fa0:	dfc00415 	stw	ra,16(sp)
    4fa4:	dcc00315 	stw	r19,12(sp)
    4fa8:	dc000015 	stw	r16,0(sp)
    4fac:	8c400204 	addi	r17,r17,8
    4fb0:	00800304 	movi	r2,12
    4fb4:	2025883a 	mov	r18,r4
    4fb8:	8880022e 	bgeu	r17,r2,4fc4 <_malloc_r+0x3c>
    4fbc:	1023883a 	mov	r17,r2
    4fc0:	00000506 	br	4fd8 <_malloc_r+0x50>
    4fc4:	8800040e 	bge	r17,zero,4fd8 <_malloc_r+0x50>
    4fc8:	00800304 	movi	r2,12
    4fcc:	90800015 	stw	r2,0(r18)
    4fd0:	0005883a 	mov	r2,zero
    4fd4:	00003b06 	br	50c4 <_malloc_r+0x13c>
    4fd8:	897ffb36 	bltu	r17,r5,4fc8 <_gp+0xffff6ba8>
    4fdc:	00800034 	movhi	r2,0
    4fe0:	10995904 	addi	r2,r2,25956
    4fe4:	10c00017 	ldw	r3,0(r2)
    4fe8:	1009883a 	mov	r4,r2
    4fec:	1821883a 	mov	r16,r3
    4ff0:	80000926 	beq	r16,zero,5018 <_malloc_r+0x90>
    4ff4:	80800017 	ldw	r2,0(r16)
    4ff8:	1445c83a 	sub	r2,r2,r17
    4ffc:	10001516 	blt	r2,zero,5054 <_malloc_r+0xcc>
    5000:	014002c4 	movi	r5,11
    5004:	28800d2e 	bgeu	r5,r2,503c <_malloc_r+0xb4>
    5008:	80800015 	stw	r2,0(r16)
    500c:	80a1883a 	add	r16,r16,r2
    5010:	84400015 	stw	r17,0(r16)
    5014:	8000221e 	bne	r16,zero,50a0 <_malloc_r+0x118>
    5018:	04000034 	movhi	r16,0
    501c:	84195804 	addi	r16,r16,25952
    5020:	80800017 	ldw	r2,0(r16)
    5024:	10000e1e 	bne	r2,zero,5060 <_malloc_r+0xd8>
    5028:	000b883a 	mov	r5,zero
    502c:	9009883a 	mov	r4,r18
    5030:	00051fc0 	call	51fc <_sbrk_r>
    5034:	80800015 	stw	r2,0(r16)
    5038:	00000906 	br	5060 <_malloc_r+0xd8>
    503c:	80800117 	ldw	r2,4(r16)
    5040:	1c00021e 	bne	r3,r16,504c <_malloc_r+0xc4>
    5044:	20800015 	stw	r2,0(r4)
    5048:	00001506 	br	50a0 <_malloc_r+0x118>
    504c:	18800115 	stw	r2,4(r3)
    5050:	00001306 	br	50a0 <_malloc_r+0x118>
    5054:	8007883a 	mov	r3,r16
    5058:	84000117 	ldw	r16,4(r16)
    505c:	003fe406 	br	4ff0 <_gp+0xffff6bd0>
    5060:	880b883a 	mov	r5,r17
    5064:	9009883a 	mov	r4,r18
    5068:	00051fc0 	call	51fc <_sbrk_r>
    506c:	04ffffc4 	movi	r19,-1
    5070:	14ffd526 	beq	r2,r19,4fc8 <_gp+0xffff6ba8>
    5074:	140000c4 	addi	r16,r2,3
    5078:	00ffff04 	movi	r3,-4
    507c:	80e0703a 	and	r16,r16,r3
    5080:	1400021e 	bne	r2,r16,508c <_malloc_r+0x104>
    5084:	84400015 	stw	r17,0(r16)
    5088:	00000506 	br	50a0 <_malloc_r+0x118>
    508c:	808bc83a 	sub	r5,r16,r2
    5090:	9009883a 	mov	r4,r18
    5094:	00051fc0 	call	51fc <_sbrk_r>
    5098:	14fffa1e 	bne	r2,r19,5084 <_gp+0xffff6c64>
    509c:	003fca06 	br	4fc8 <_gp+0xffff6ba8>
    50a0:	810002c4 	addi	r4,r16,11
    50a4:	00bffe04 	movi	r2,-8
    50a8:	80c00104 	addi	r3,r16,4
    50ac:	2084703a 	and	r2,r4,r2
    50b0:	10c7c83a 	sub	r3,r2,r3
    50b4:	18000326 	beq	r3,zero,50c4 <_malloc_r+0x13c>
    50b8:	80e1883a 	add	r16,r16,r3
    50bc:	00c7c83a 	sub	r3,zero,r3
    50c0:	80c00015 	stw	r3,0(r16)
    50c4:	dfc00417 	ldw	ra,16(sp)
    50c8:	dcc00317 	ldw	r19,12(sp)
    50cc:	dc800217 	ldw	r18,8(sp)
    50d0:	dc400117 	ldw	r17,4(sp)
    50d4:	dc000017 	ldw	r16,0(sp)
    50d8:	dec00504 	addi	sp,sp,20
    50dc:	f800283a 	ret

000050e0 <_printf_r>:
    50e0:	defffd04 	addi	sp,sp,-12
    50e4:	dfc00015 	stw	ra,0(sp)
    50e8:	d9800115 	stw	r6,4(sp)
    50ec:	d9c00215 	stw	r7,8(sp)
    50f0:	20c00217 	ldw	r3,8(r4)
    50f4:	01800034 	movhi	r6,0
    50f8:	31966204 	addi	r6,r6,22920
    50fc:	19800115 	stw	r6,4(r3)
    5100:	280d883a 	mov	r6,r5
    5104:	21400217 	ldw	r5,8(r4)
    5108:	d9c00104 	addi	r7,sp,4
    510c:	00054480 	call	5448 <___vfprintf_internal_r>
    5110:	dfc00017 	ldw	ra,0(sp)
    5114:	dec00304 	addi	sp,sp,12
    5118:	f800283a 	ret

0000511c <printf>:
    511c:	defffc04 	addi	sp,sp,-16
    5120:	dfc00015 	stw	ra,0(sp)
    5124:	d9400115 	stw	r5,4(sp)
    5128:	d9800215 	stw	r6,8(sp)
    512c:	d9c00315 	stw	r7,12(sp)
    5130:	00800034 	movhi	r2,0
    5134:	10990a04 	addi	r2,r2,25640
    5138:	10800017 	ldw	r2,0(r2)
    513c:	01400034 	movhi	r5,0
    5140:	29566204 	addi	r5,r5,22920
    5144:	10c00217 	ldw	r3,8(r2)
    5148:	d9800104 	addi	r6,sp,4
    514c:	19400115 	stw	r5,4(r3)
    5150:	200b883a 	mov	r5,r4
    5154:	11000217 	ldw	r4,8(r2)
    5158:	000596c0 	call	596c <__vfprintf_internal>
    515c:	dfc00017 	ldw	ra,0(sp)
    5160:	dec00404 	addi	sp,sp,16
    5164:	f800283a 	ret

00005168 <_puts_r>:
    5168:	defffd04 	addi	sp,sp,-12
    516c:	dc000015 	stw	r16,0(sp)
    5170:	2021883a 	mov	r16,r4
    5174:	2809883a 	mov	r4,r5
    5178:	dfc00215 	stw	ra,8(sp)
    517c:	dc400115 	stw	r17,4(sp)
    5180:	2823883a 	mov	r17,r5
    5184:	00052c00 	call	52c0 <strlen>
    5188:	81400217 	ldw	r5,8(r16)
    518c:	01000034 	movhi	r4,0
    5190:	21166204 	addi	r4,r4,22920
    5194:	29000115 	stw	r4,4(r5)
    5198:	100f883a 	mov	r7,r2
    519c:	880d883a 	mov	r6,r17
    51a0:	8009883a 	mov	r4,r16
    51a4:	00059880 	call	5988 <__sfvwrite_small_dev>
    51a8:	00ffffc4 	movi	r3,-1
    51ac:	10c00926 	beq	r2,r3,51d4 <_puts_r+0x6c>
    51b0:	81400217 	ldw	r5,8(r16)
    51b4:	01800034 	movhi	r6,0
    51b8:	01c00044 	movi	r7,1
    51bc:	28800117 	ldw	r2,4(r5)
    51c0:	3197b904 	addi	r6,r6,24292
    51c4:	8009883a 	mov	r4,r16
    51c8:	103ee83a 	callr	r2
    51cc:	10bfffe0 	cmpeqi	r2,r2,-1
    51d0:	0085c83a 	sub	r2,zero,r2
    51d4:	dfc00217 	ldw	ra,8(sp)
    51d8:	dc400117 	ldw	r17,4(sp)
    51dc:	dc000017 	ldw	r16,0(sp)
    51e0:	dec00304 	addi	sp,sp,12
    51e4:	f800283a 	ret

000051e8 <puts>:
    51e8:	00800034 	movhi	r2,0
    51ec:	10990a04 	addi	r2,r2,25640
    51f0:	200b883a 	mov	r5,r4
    51f4:	11000017 	ldw	r4,0(r2)
    51f8:	00051681 	jmpi	5168 <_puts_r>

000051fc <_sbrk_r>:
    51fc:	defffd04 	addi	sp,sp,-12
    5200:	dc000015 	stw	r16,0(sp)
    5204:	04000034 	movhi	r16,0
    5208:	dc400115 	stw	r17,4(sp)
    520c:	84195a04 	addi	r16,r16,25960
    5210:	2023883a 	mov	r17,r4
    5214:	2809883a 	mov	r4,r5
    5218:	dfc00215 	stw	ra,8(sp)
    521c:	80000015 	stw	zero,0(r16)
    5220:	0005d5c0 	call	5d5c <sbrk>
    5224:	00ffffc4 	movi	r3,-1
    5228:	10c0031e 	bne	r2,r3,5238 <_sbrk_r+0x3c>
    522c:	80c00017 	ldw	r3,0(r16)
    5230:	18000126 	beq	r3,zero,5238 <_sbrk_r+0x3c>
    5234:	88c00015 	stw	r3,0(r17)
    5238:	dfc00217 	ldw	ra,8(sp)
    523c:	dc400117 	ldw	r17,4(sp)
    5240:	dc000017 	ldw	r16,0(sp)
    5244:	dec00304 	addi	sp,sp,12
    5248:	f800283a 	ret

0000524c <strcat>:
    524c:	2005883a 	mov	r2,r4
    5250:	2007883a 	mov	r3,r4
    5254:	19000007 	ldb	r4,0(r3)
    5258:	20000226 	beq	r4,zero,5264 <strcat+0x18>
    525c:	18c00044 	addi	r3,r3,1
    5260:	003ffc06 	br	5254 <_gp+0xffff6e34>
    5264:	29800003 	ldbu	r6,0(r5)
    5268:	18c00044 	addi	r3,r3,1
    526c:	29400044 	addi	r5,r5,1
    5270:	19bfffc5 	stb	r6,-1(r3)
    5274:	31803fcc 	andi	r6,r6,255
    5278:	3180201c 	xori	r6,r6,128
    527c:	31bfe004 	addi	r6,r6,-128
    5280:	303ff81e 	bne	r6,zero,5264 <_gp+0xffff6e44>
    5284:	f800283a 	ret

00005288 <strcmp>:
    5288:	20800003 	ldbu	r2,0(r4)
    528c:	10c03fcc 	andi	r3,r2,255
    5290:	18c0201c 	xori	r3,r3,128
    5294:	18ffe004 	addi	r3,r3,-128
    5298:	18000526 	beq	r3,zero,52b0 <strcmp+0x28>
    529c:	29800007 	ldb	r6,0(r5)
    52a0:	1980031e 	bne	r3,r6,52b0 <strcmp+0x28>
    52a4:	21000044 	addi	r4,r4,1
    52a8:	29400044 	addi	r5,r5,1
    52ac:	003ff606 	br	5288 <_gp+0xffff6e68>
    52b0:	28c00003 	ldbu	r3,0(r5)
    52b4:	10803fcc 	andi	r2,r2,255
    52b8:	10c5c83a 	sub	r2,r2,r3
    52bc:	f800283a 	ret

000052c0 <strlen>:
    52c0:	2005883a 	mov	r2,r4
    52c4:	10c00007 	ldb	r3,0(r2)
    52c8:	18000226 	beq	r3,zero,52d4 <strlen+0x14>
    52cc:	10800044 	addi	r2,r2,1
    52d0:	003ffc06 	br	52c4 <_gp+0xffff6ea4>
    52d4:	1105c83a 	sub	r2,r2,r4
    52d8:	f800283a 	ret

000052dc <__utoa>:
    52dc:	deffef04 	addi	sp,sp,-68
    52e0:	dc000a15 	stw	r16,40(sp)
    52e4:	2821883a 	mov	r16,r5
    52e8:	01400034 	movhi	r5,0
    52ec:	dd400f15 	stw	r21,60(sp)
    52f0:	dcc00d15 	stw	r19,52(sp)
    52f4:	302b883a 	mov	r21,r6
    52f8:	2027883a 	mov	r19,r4
    52fc:	01800944 	movi	r6,37
    5300:	2958bb04 	addi	r5,r5,25324
    5304:	d809883a 	mov	r4,sp
    5308:	dfc01015 	stw	ra,64(sp)
    530c:	dd000e15 	stw	r20,56(sp)
    5310:	dc800c15 	stw	r18,48(sp)
    5314:	dc400b15 	stw	r17,44(sp)
    5318:	0004e5c0 	call	4e5c <memcpy>
    531c:	a8bfff84 	addi	r2,r21,-2
    5320:	00c00884 	movi	r3,34
    5324:	1880032e 	bgeu	r3,r2,5334 <__utoa+0x58>
    5328:	80000005 	stb	zero,0(r16)
    532c:	0005883a 	mov	r2,zero
    5330:	00002006 	br	53b4 <__utoa+0xd8>
    5334:	8029883a 	mov	r20,r16
    5338:	0023883a 	mov	r17,zero
    533c:	9809883a 	mov	r4,r19
    5340:	a80b883a 	mov	r5,r21
    5344:	0004d600 	call	4d60 <__umodsi3>
    5348:	d885883a 	add	r2,sp,r2
    534c:	10800003 	ldbu	r2,0(r2)
    5350:	9809883a 	mov	r4,r19
    5354:	a80b883a 	mov	r5,r21
    5358:	a0800005 	stb	r2,0(r20)
    535c:	0004cfc0 	call	4cfc <__udivsi3>
    5360:	8c800044 	addi	r18,r17,1
    5364:	1027883a 	mov	r19,r2
    5368:	a5000044 	addi	r20,r20,1
    536c:	10000226 	beq	r2,zero,5378 <__utoa+0x9c>
    5370:	9023883a 	mov	r17,r18
    5374:	003ff106 	br	533c <_gp+0xffff6f1c>
    5378:	84a5883a 	add	r18,r16,r18
    537c:	90000005 	stb	zero,0(r18)
    5380:	8445883a 	add	r2,r16,r17
    5384:	8007883a 	mov	r3,r16
    5388:	1409c83a 	sub	r4,r2,r16
    538c:	1c0bc83a 	sub	r5,r3,r16
    5390:	2900070e 	bge	r5,r4,53b0 <__utoa+0xd4>
    5394:	11400003 	ldbu	r5,0(r2)
    5398:	19000003 	ldbu	r4,0(r3)
    539c:	10bfffc4 	addi	r2,r2,-1
    53a0:	19400005 	stb	r5,0(r3)
    53a4:	11000045 	stb	r4,1(r2)
    53a8:	18c00044 	addi	r3,r3,1
    53ac:	003ff606 	br	5388 <_gp+0xffff6f68>
    53b0:	8005883a 	mov	r2,r16
    53b4:	dfc01017 	ldw	ra,64(sp)
    53b8:	dd400f17 	ldw	r21,60(sp)
    53bc:	dd000e17 	ldw	r20,56(sp)
    53c0:	dcc00d17 	ldw	r19,52(sp)
    53c4:	dc800c17 	ldw	r18,48(sp)
    53c8:	dc400b17 	ldw	r17,44(sp)
    53cc:	dc000a17 	ldw	r16,40(sp)
    53d0:	dec01104 	addi	sp,sp,68
    53d4:	f800283a 	ret

000053d8 <utoa>:
    53d8:	00052dc1 	jmpi	52dc <__utoa>

000053dc <print_repeat>:
    53dc:	defffb04 	addi	sp,sp,-20
    53e0:	dc800315 	stw	r18,12(sp)
    53e4:	dc400215 	stw	r17,8(sp)
    53e8:	dc000115 	stw	r16,4(sp)
    53ec:	dfc00415 	stw	ra,16(sp)
    53f0:	2025883a 	mov	r18,r4
    53f4:	2823883a 	mov	r17,r5
    53f8:	d9800005 	stb	r6,0(sp)
    53fc:	3821883a 	mov	r16,r7
    5400:	04000a0e 	bge	zero,r16,542c <print_repeat+0x50>
    5404:	88800117 	ldw	r2,4(r17)
    5408:	01c00044 	movi	r7,1
    540c:	d80d883a 	mov	r6,sp
    5410:	880b883a 	mov	r5,r17
    5414:	9009883a 	mov	r4,r18
    5418:	103ee83a 	callr	r2
    541c:	843fffc4 	addi	r16,r16,-1
    5420:	103ff726 	beq	r2,zero,5400 <_gp+0xffff6fe0>
    5424:	00bfffc4 	movi	r2,-1
    5428:	00000106 	br	5430 <print_repeat+0x54>
    542c:	0005883a 	mov	r2,zero
    5430:	dfc00417 	ldw	ra,16(sp)
    5434:	dc800317 	ldw	r18,12(sp)
    5438:	dc400217 	ldw	r17,8(sp)
    543c:	dc000117 	ldw	r16,4(sp)
    5440:	dec00504 	addi	sp,sp,20
    5444:	f800283a 	ret

00005448 <___vfprintf_internal_r>:
    5448:	deffe504 	addi	sp,sp,-108
    544c:	d8c00804 	addi	r3,sp,32
    5450:	df001915 	stw	fp,100(sp)
    5454:	ddc01815 	stw	r23,96(sp)
    5458:	dd801715 	stw	r22,92(sp)
    545c:	dd401615 	stw	r21,88(sp)
    5460:	dd001515 	stw	r20,84(sp)
    5464:	dcc01415 	stw	r19,80(sp)
    5468:	dc801315 	stw	r18,76(sp)
    546c:	dc401215 	stw	r17,72(sp)
    5470:	dc001115 	stw	r16,68(sp)
    5474:	dfc01a15 	stw	ra,104(sp)
    5478:	2027883a 	mov	r19,r4
    547c:	2839883a 	mov	fp,r5
    5480:	382d883a 	mov	r22,r7
    5484:	d9800f15 	stw	r6,60(sp)
    5488:	0021883a 	mov	r16,zero
    548c:	d8000e15 	stw	zero,56(sp)
    5490:	002f883a 	mov	r23,zero
    5494:	002b883a 	mov	r21,zero
    5498:	0025883a 	mov	r18,zero
    549c:	0023883a 	mov	r17,zero
    54a0:	d8000c15 	stw	zero,48(sp)
    54a4:	d8000b15 	stw	zero,44(sp)
    54a8:	0029883a 	mov	r20,zero
    54ac:	d8c00915 	stw	r3,36(sp)
    54b0:	d8c00f17 	ldw	r3,60(sp)
    54b4:	19000003 	ldbu	r4,0(r3)
    54b8:	20803fcc 	andi	r2,r4,255
    54bc:	1080201c 	xori	r2,r2,128
    54c0:	10bfe004 	addi	r2,r2,-128
    54c4:	10011c26 	beq	r2,zero,5938 <___vfprintf_internal_r+0x4f0>
    54c8:	00c00044 	movi	r3,1
    54cc:	a0c01426 	beq	r20,r3,5520 <___vfprintf_internal_r+0xd8>
    54d0:	1d000216 	blt	r3,r20,54dc <___vfprintf_internal_r+0x94>
    54d4:	a0000626 	beq	r20,zero,54f0 <___vfprintf_internal_r+0xa8>
    54d8:	00011306 	br	5928 <___vfprintf_internal_r+0x4e0>
    54dc:	01400084 	movi	r5,2
    54e0:	a1401d26 	beq	r20,r5,5558 <___vfprintf_internal_r+0x110>
    54e4:	014000c4 	movi	r5,3
    54e8:	a1402926 	beq	r20,r5,5590 <___vfprintf_internal_r+0x148>
    54ec:	00010e06 	br	5928 <___vfprintf_internal_r+0x4e0>
    54f0:	01400944 	movi	r5,37
    54f4:	1140fb26 	beq	r2,r5,58e4 <___vfprintf_internal_r+0x49c>
    54f8:	e0800117 	ldw	r2,4(fp)
    54fc:	d9000005 	stb	r4,0(sp)
    5500:	01c00044 	movi	r7,1
    5504:	d80d883a 	mov	r6,sp
    5508:	e00b883a 	mov	r5,fp
    550c:	9809883a 	mov	r4,r19
    5510:	103ee83a 	callr	r2
    5514:	1000d61e 	bne	r2,zero,5870 <___vfprintf_internal_r+0x428>
    5518:	84000044 	addi	r16,r16,1
    551c:	00010206 	br	5928 <___vfprintf_internal_r+0x4e0>
    5520:	01400c04 	movi	r5,48
    5524:	1140f826 	beq	r2,r5,5908 <___vfprintf_internal_r+0x4c0>
    5528:	01400944 	movi	r5,37
    552c:	11400a1e 	bne	r2,r5,5558 <___vfprintf_internal_r+0x110>
    5530:	d8800005 	stb	r2,0(sp)
    5534:	e0800117 	ldw	r2,4(fp)
    5538:	a00f883a 	mov	r7,r20
    553c:	d80d883a 	mov	r6,sp
    5540:	e00b883a 	mov	r5,fp
    5544:	9809883a 	mov	r4,r19
    5548:	103ee83a 	callr	r2
    554c:	1000c81e 	bne	r2,zero,5870 <___vfprintf_internal_r+0x428>
    5550:	84000044 	addi	r16,r16,1
    5554:	0000f306 	br	5924 <___vfprintf_internal_r+0x4dc>
    5558:	217ff404 	addi	r5,r4,-48
    555c:	29403fcc 	andi	r5,r5,255
    5560:	00c00244 	movi	r3,9
    5564:	19400736 	bltu	r3,r5,5584 <___vfprintf_internal_r+0x13c>
    5568:	00bfffc4 	movi	r2,-1
    556c:	88800226 	beq	r17,r2,5578 <___vfprintf_internal_r+0x130>
    5570:	8c4002a4 	muli	r17,r17,10
    5574:	00000106 	br	557c <___vfprintf_internal_r+0x134>
    5578:	0023883a 	mov	r17,zero
    557c:	2c63883a 	add	r17,r5,r17
    5580:	0000e206 	br	590c <___vfprintf_internal_r+0x4c4>
    5584:	01400b84 	movi	r5,46
    5588:	1140e426 	beq	r2,r5,591c <___vfprintf_internal_r+0x4d4>
    558c:	05000084 	movi	r20,2
    5590:	213ff404 	addi	r4,r4,-48
    5594:	21003fcc 	andi	r4,r4,255
    5598:	00c00244 	movi	r3,9
    559c:	19000736 	bltu	r3,r4,55bc <___vfprintf_internal_r+0x174>
    55a0:	00bfffc4 	movi	r2,-1
    55a4:	90800226 	beq	r18,r2,55b0 <___vfprintf_internal_r+0x168>
    55a8:	948002a4 	muli	r18,r18,10
    55ac:	00000106 	br	55b4 <___vfprintf_internal_r+0x16c>
    55b0:	0025883a 	mov	r18,zero
    55b4:	24a5883a 	add	r18,r4,r18
    55b8:	0000db06 	br	5928 <___vfprintf_internal_r+0x4e0>
    55bc:	00c01b04 	movi	r3,108
    55c0:	10c0d426 	beq	r2,r3,5914 <___vfprintf_internal_r+0x4cc>
    55c4:	013fffc4 	movi	r4,-1
    55c8:	91000226 	beq	r18,r4,55d4 <___vfprintf_internal_r+0x18c>
    55cc:	d8000b15 	stw	zero,44(sp)
    55d0:	00000106 	br	55d8 <___vfprintf_internal_r+0x190>
    55d4:	04800044 	movi	r18,1
    55d8:	01001a44 	movi	r4,105
    55dc:	11001626 	beq	r2,r4,5638 <___vfprintf_internal_r+0x1f0>
    55e0:	20800916 	blt	r4,r2,5608 <___vfprintf_internal_r+0x1c0>
    55e4:	010018c4 	movi	r4,99
    55e8:	11008a26 	beq	r2,r4,5814 <___vfprintf_internal_r+0x3cc>
    55ec:	01001904 	movi	r4,100
    55f0:	11001126 	beq	r2,r4,5638 <___vfprintf_internal_r+0x1f0>
    55f4:	01001604 	movi	r4,88
    55f8:	1100ca1e 	bne	r2,r4,5924 <___vfprintf_internal_r+0x4dc>
    55fc:	00c00044 	movi	r3,1
    5600:	d8c00e15 	stw	r3,56(sp)
    5604:	00001406 	br	5658 <___vfprintf_internal_r+0x210>
    5608:	01001cc4 	movi	r4,115
    560c:	11009a26 	beq	r2,r4,5878 <___vfprintf_internal_r+0x430>
    5610:	20800416 	blt	r4,r2,5624 <___vfprintf_internal_r+0x1dc>
    5614:	01001bc4 	movi	r4,111
    5618:	1100c21e 	bne	r2,r4,5924 <___vfprintf_internal_r+0x4dc>
    561c:	05400204 	movi	r21,8
    5620:	00000e06 	br	565c <___vfprintf_internal_r+0x214>
    5624:	01001d44 	movi	r4,117
    5628:	11000c26 	beq	r2,r4,565c <___vfprintf_internal_r+0x214>
    562c:	01001e04 	movi	r4,120
    5630:	11000926 	beq	r2,r4,5658 <___vfprintf_internal_r+0x210>
    5634:	0000bb06 	br	5924 <___vfprintf_internal_r+0x4dc>
    5638:	b5000104 	addi	r20,r22,4
    563c:	b8000726 	beq	r23,zero,565c <___vfprintf_internal_r+0x214>
    5640:	dd000d15 	stw	r20,52(sp)
    5644:	b5800017 	ldw	r22,0(r22)
    5648:	b000080e 	bge	r22,zero,566c <___vfprintf_internal_r+0x224>
    564c:	05adc83a 	sub	r22,zero,r22
    5650:	02800044 	movi	r10,1
    5654:	00000606 	br	5670 <___vfprintf_internal_r+0x228>
    5658:	05400404 	movi	r21,16
    565c:	b0c00104 	addi	r3,r22,4
    5660:	d8c00d15 	stw	r3,52(sp)
    5664:	b5800017 	ldw	r22,0(r22)
    5668:	002f883a 	mov	r23,zero
    566c:	0015883a 	mov	r10,zero
    5670:	d829883a 	mov	r20,sp
    5674:	b0001426 	beq	r22,zero,56c8 <___vfprintf_internal_r+0x280>
    5678:	b009883a 	mov	r4,r22
    567c:	a80b883a 	mov	r5,r21
    5680:	da801015 	stw	r10,64(sp)
    5684:	0004cfc0 	call	4cfc <__udivsi3>
    5688:	1549383a 	mul	r4,r2,r21
    568c:	00c00244 	movi	r3,9
    5690:	da801017 	ldw	r10,64(sp)
    5694:	b12dc83a 	sub	r22,r22,r4
    5698:	1d800216 	blt	r3,r22,56a4 <___vfprintf_internal_r+0x25c>
    569c:	b5800c04 	addi	r22,r22,48
    56a0:	00000506 	br	56b8 <___vfprintf_internal_r+0x270>
    56a4:	d8c00e17 	ldw	r3,56(sp)
    56a8:	18000226 	beq	r3,zero,56b4 <___vfprintf_internal_r+0x26c>
    56ac:	b5800dc4 	addi	r22,r22,55
    56b0:	00000106 	br	56b8 <___vfprintf_internal_r+0x270>
    56b4:	b58015c4 	addi	r22,r22,87
    56b8:	a5800005 	stb	r22,0(r20)
    56bc:	a5000044 	addi	r20,r20,1
    56c0:	102d883a 	mov	r22,r2
    56c4:	003feb06 	br	5674 <_gp+0xffff7254>
    56c8:	a6c7c83a 	sub	r3,r20,sp
    56cc:	d8c00a15 	stw	r3,40(sp)
    56d0:	90c5c83a 	sub	r2,r18,r3
    56d4:	00800a0e 	bge	zero,r2,5700 <___vfprintf_internal_r+0x2b8>
    56d8:	a085883a 	add	r2,r20,r2
    56dc:	01400c04 	movi	r5,48
    56e0:	d8c00917 	ldw	r3,36(sp)
    56e4:	a009883a 	mov	r4,r20
    56e8:	a0c0032e 	bgeu	r20,r3,56f8 <___vfprintf_internal_r+0x2b0>
    56ec:	a5000044 	addi	r20,r20,1
    56f0:	21400005 	stb	r5,0(r4)
    56f4:	a0bffa1e 	bne	r20,r2,56e0 <_gp+0xffff72c0>
    56f8:	a6c7c83a 	sub	r3,r20,sp
    56fc:	d8c00a15 	stw	r3,40(sp)
    5700:	d8c00a17 	ldw	r3,40(sp)
    5704:	50d3883a 	add	r9,r10,r3
    5708:	d8c00b17 	ldw	r3,44(sp)
    570c:	8a6dc83a 	sub	r22,r17,r9
    5710:	18001726 	beq	r3,zero,5770 <___vfprintf_internal_r+0x328>
    5714:	50000a26 	beq	r10,zero,5740 <___vfprintf_internal_r+0x2f8>
    5718:	00800b44 	movi	r2,45
    571c:	d8800805 	stb	r2,32(sp)
    5720:	e0800117 	ldw	r2,4(fp)
    5724:	01c00044 	movi	r7,1
    5728:	d9800804 	addi	r6,sp,32
    572c:	e00b883a 	mov	r5,fp
    5730:	9809883a 	mov	r4,r19
    5734:	103ee83a 	callr	r2
    5738:	10004d1e 	bne	r2,zero,5870 <___vfprintf_internal_r+0x428>
    573c:	84000044 	addi	r16,r16,1
    5740:	0580070e 	bge	zero,r22,5760 <___vfprintf_internal_r+0x318>
    5744:	b00f883a 	mov	r7,r22
    5748:	01800c04 	movi	r6,48
    574c:	e00b883a 	mov	r5,fp
    5750:	9809883a 	mov	r4,r19
    5754:	00053dc0 	call	53dc <print_repeat>
    5758:	1000451e 	bne	r2,zero,5870 <___vfprintf_internal_r+0x428>
    575c:	85a1883a 	add	r16,r16,r22
    5760:	d8c00a17 	ldw	r3,40(sp)
    5764:	a013883a 	mov	r9,r20
    5768:	1d2dc83a 	sub	r22,r3,r20
    576c:	00002206 	br	57f8 <___vfprintf_internal_r+0x3b0>
    5770:	0580090e 	bge	zero,r22,5798 <___vfprintf_internal_r+0x350>
    5774:	b00f883a 	mov	r7,r22
    5778:	01800804 	movi	r6,32
    577c:	e00b883a 	mov	r5,fp
    5780:	9809883a 	mov	r4,r19
    5784:	da801015 	stw	r10,64(sp)
    5788:	00053dc0 	call	53dc <print_repeat>
    578c:	da801017 	ldw	r10,64(sp)
    5790:	1000371e 	bne	r2,zero,5870 <___vfprintf_internal_r+0x428>
    5794:	85a1883a 	add	r16,r16,r22
    5798:	503ff126 	beq	r10,zero,5760 <_gp+0xffff7340>
    579c:	00800b44 	movi	r2,45
    57a0:	d8800805 	stb	r2,32(sp)
    57a4:	e0800117 	ldw	r2,4(fp)
    57a8:	01c00044 	movi	r7,1
    57ac:	d9800804 	addi	r6,sp,32
    57b0:	e00b883a 	mov	r5,fp
    57b4:	9809883a 	mov	r4,r19
    57b8:	103ee83a 	callr	r2
    57bc:	10002c1e 	bne	r2,zero,5870 <___vfprintf_internal_r+0x428>
    57c0:	84000044 	addi	r16,r16,1
    57c4:	003fe606 	br	5760 <_gp+0xffff7340>
    57c8:	4a7fffc4 	addi	r9,r9,-1
    57cc:	48800003 	ldbu	r2,0(r9)
    57d0:	01c00044 	movi	r7,1
    57d4:	d9800804 	addi	r6,sp,32
    57d8:	d8800805 	stb	r2,32(sp)
    57dc:	e0800117 	ldw	r2,4(fp)
    57e0:	e00b883a 	mov	r5,fp
    57e4:	da401015 	stw	r9,64(sp)
    57e8:	9809883a 	mov	r4,r19
    57ec:	103ee83a 	callr	r2
    57f0:	da401017 	ldw	r9,64(sp)
    57f4:	10001e1e 	bne	r2,zero,5870 <___vfprintf_internal_r+0x428>
    57f8:	8245c83a 	sub	r2,r16,r9
    57fc:	4d89883a 	add	r4,r9,r22
    5800:	a085883a 	add	r2,r20,r2
    5804:	013ff016 	blt	zero,r4,57c8 <_gp+0xffff73a8>
    5808:	1021883a 	mov	r16,r2
    580c:	dd800d17 	ldw	r22,52(sp)
    5810:	00004406 	br	5924 <___vfprintf_internal_r+0x4dc>
    5814:	00800044 	movi	r2,1
    5818:	1440080e 	bge	r2,r17,583c <___vfprintf_internal_r+0x3f4>
    581c:	8d3fffc4 	addi	r20,r17,-1
    5820:	a00f883a 	mov	r7,r20
    5824:	01800804 	movi	r6,32
    5828:	e00b883a 	mov	r5,fp
    582c:	9809883a 	mov	r4,r19
    5830:	00053dc0 	call	53dc <print_repeat>
    5834:	10000e1e 	bne	r2,zero,5870 <___vfprintf_internal_r+0x428>
    5838:	8521883a 	add	r16,r16,r20
    583c:	b0800017 	ldw	r2,0(r22)
    5840:	01c00044 	movi	r7,1
    5844:	d80d883a 	mov	r6,sp
    5848:	d8800005 	stb	r2,0(sp)
    584c:	e0800117 	ldw	r2,4(fp)
    5850:	e00b883a 	mov	r5,fp
    5854:	9809883a 	mov	r4,r19
    5858:	b5000104 	addi	r20,r22,4
    585c:	103ee83a 	callr	r2
    5860:	1000031e 	bne	r2,zero,5870 <___vfprintf_internal_r+0x428>
    5864:	84000044 	addi	r16,r16,1
    5868:	a02d883a 	mov	r22,r20
    586c:	00002d06 	br	5924 <___vfprintf_internal_r+0x4dc>
    5870:	00bfffc4 	movi	r2,-1
    5874:	00003106 	br	593c <___vfprintf_internal_r+0x4f4>
    5878:	b5000017 	ldw	r20,0(r22)
    587c:	b0c00104 	addi	r3,r22,4
    5880:	d8c00a15 	stw	r3,40(sp)
    5884:	a009883a 	mov	r4,r20
    5888:	00052c00 	call	52c0 <strlen>
    588c:	8893c83a 	sub	r9,r17,r2
    5890:	102d883a 	mov	r22,r2
    5894:	0240090e 	bge	zero,r9,58bc <___vfprintf_internal_r+0x474>
    5898:	480f883a 	mov	r7,r9
    589c:	01800804 	movi	r6,32
    58a0:	e00b883a 	mov	r5,fp
    58a4:	9809883a 	mov	r4,r19
    58a8:	da401015 	stw	r9,64(sp)
    58ac:	00053dc0 	call	53dc <print_repeat>
    58b0:	da401017 	ldw	r9,64(sp)
    58b4:	103fee1e 	bne	r2,zero,5870 <_gp+0xffff7450>
    58b8:	8261883a 	add	r16,r16,r9
    58bc:	e0800117 	ldw	r2,4(fp)
    58c0:	b00f883a 	mov	r7,r22
    58c4:	a00d883a 	mov	r6,r20
    58c8:	e00b883a 	mov	r5,fp
    58cc:	9809883a 	mov	r4,r19
    58d0:	103ee83a 	callr	r2
    58d4:	103fe61e 	bne	r2,zero,5870 <_gp+0xffff7450>
    58d8:	85a1883a 	add	r16,r16,r22
    58dc:	dd800a17 	ldw	r22,40(sp)
    58e0:	00001006 	br	5924 <___vfprintf_internal_r+0x4dc>
    58e4:	05c00044 	movi	r23,1
    58e8:	04bfffc4 	movi	r18,-1
    58ec:	d8000e15 	stw	zero,56(sp)
    58f0:	05400284 	movi	r21,10
    58f4:	9023883a 	mov	r17,r18
    58f8:	d8000c15 	stw	zero,48(sp)
    58fc:	d8000b15 	stw	zero,44(sp)
    5900:	b829883a 	mov	r20,r23
    5904:	00000806 	br	5928 <___vfprintf_internal_r+0x4e0>
    5908:	dd000b15 	stw	r20,44(sp)
    590c:	05000084 	movi	r20,2
    5910:	00000506 	br	5928 <___vfprintf_internal_r+0x4e0>
    5914:	00c00044 	movi	r3,1
    5918:	d8c00c15 	stw	r3,48(sp)
    591c:	050000c4 	movi	r20,3
    5920:	00000106 	br	5928 <___vfprintf_internal_r+0x4e0>
    5924:	0029883a 	mov	r20,zero
    5928:	d8c00f17 	ldw	r3,60(sp)
    592c:	18c00044 	addi	r3,r3,1
    5930:	d8c00f15 	stw	r3,60(sp)
    5934:	003ede06 	br	54b0 <_gp+0xffff7090>
    5938:	8005883a 	mov	r2,r16
    593c:	dfc01a17 	ldw	ra,104(sp)
    5940:	df001917 	ldw	fp,100(sp)
    5944:	ddc01817 	ldw	r23,96(sp)
    5948:	dd801717 	ldw	r22,92(sp)
    594c:	dd401617 	ldw	r21,88(sp)
    5950:	dd001517 	ldw	r20,84(sp)
    5954:	dcc01417 	ldw	r19,80(sp)
    5958:	dc801317 	ldw	r18,76(sp)
    595c:	dc401217 	ldw	r17,72(sp)
    5960:	dc001117 	ldw	r16,68(sp)
    5964:	dec01b04 	addi	sp,sp,108
    5968:	f800283a 	ret

0000596c <__vfprintf_internal>:
    596c:	00800034 	movhi	r2,0
    5970:	10990a04 	addi	r2,r2,25640
    5974:	300f883a 	mov	r7,r6
    5978:	280d883a 	mov	r6,r5
    597c:	200b883a 	mov	r5,r4
    5980:	11000017 	ldw	r4,0(r2)
    5984:	00054481 	jmpi	5448 <___vfprintf_internal_r>

00005988 <__sfvwrite_small_dev>:
    5988:	2880000b 	ldhu	r2,0(r5)
    598c:	1080020c 	andi	r2,r2,8
    5990:	10002126 	beq	r2,zero,5a18 <__sfvwrite_small_dev+0x90>
    5994:	2880008f 	ldh	r2,2(r5)
    5998:	defffa04 	addi	sp,sp,-24
    599c:	dc000015 	stw	r16,0(sp)
    59a0:	dfc00515 	stw	ra,20(sp)
    59a4:	dd000415 	stw	r20,16(sp)
    59a8:	dcc00315 	stw	r19,12(sp)
    59ac:	dc800215 	stw	r18,8(sp)
    59b0:	dc400115 	stw	r17,4(sp)
    59b4:	2821883a 	mov	r16,r5
    59b8:	10001216 	blt	r2,zero,5a04 <__sfvwrite_small_dev+0x7c>
    59bc:	2027883a 	mov	r19,r4
    59c0:	3025883a 	mov	r18,r6
    59c4:	3823883a 	mov	r17,r7
    59c8:	05010004 	movi	r20,1024
    59cc:	04400b0e 	bge	zero,r17,59fc <__sfvwrite_small_dev+0x74>
    59d0:	880f883a 	mov	r7,r17
    59d4:	a440010e 	bge	r20,r17,59dc <__sfvwrite_small_dev+0x54>
    59d8:	01c10004 	movi	r7,1024
    59dc:	8140008f 	ldh	r5,2(r16)
    59e0:	900d883a 	mov	r6,r18
    59e4:	9809883a 	mov	r4,r19
    59e8:	0005a400 	call	5a40 <_write_r>
    59ec:	0080050e 	bge	zero,r2,5a04 <__sfvwrite_small_dev+0x7c>
    59f0:	88a3c83a 	sub	r17,r17,r2
    59f4:	90a5883a 	add	r18,r18,r2
    59f8:	003ff406 	br	59cc <_gp+0xffff75ac>
    59fc:	0005883a 	mov	r2,zero
    5a00:	00000706 	br	5a20 <__sfvwrite_small_dev+0x98>
    5a04:	8080000b 	ldhu	r2,0(r16)
    5a08:	10801014 	ori	r2,r2,64
    5a0c:	8080000d 	sth	r2,0(r16)
    5a10:	00bfffc4 	movi	r2,-1
    5a14:	00000206 	br	5a20 <__sfvwrite_small_dev+0x98>
    5a18:	00bfffc4 	movi	r2,-1
    5a1c:	f800283a 	ret
    5a20:	dfc00517 	ldw	ra,20(sp)
    5a24:	dd000417 	ldw	r20,16(sp)
    5a28:	dcc00317 	ldw	r19,12(sp)
    5a2c:	dc800217 	ldw	r18,8(sp)
    5a30:	dc400117 	ldw	r17,4(sp)
    5a34:	dc000017 	ldw	r16,0(sp)
    5a38:	dec00604 	addi	sp,sp,24
    5a3c:	f800283a 	ret

00005a40 <_write_r>:
    5a40:	defffd04 	addi	sp,sp,-12
    5a44:	dc000015 	stw	r16,0(sp)
    5a48:	04000034 	movhi	r16,0
    5a4c:	dc400115 	stw	r17,4(sp)
    5a50:	84195a04 	addi	r16,r16,25960
    5a54:	2023883a 	mov	r17,r4
    5a58:	2809883a 	mov	r4,r5
    5a5c:	300b883a 	mov	r5,r6
    5a60:	380d883a 	mov	r6,r7
    5a64:	dfc00215 	stw	ra,8(sp)
    5a68:	80000015 	stw	zero,0(r16)
    5a6c:	0005da80 	call	5da8 <write>
    5a70:	00ffffc4 	movi	r3,-1
    5a74:	10c0031e 	bne	r2,r3,5a84 <_write_r+0x44>
    5a78:	80c00017 	ldw	r3,0(r16)
    5a7c:	18000126 	beq	r3,zero,5a84 <_write_r+0x44>
    5a80:	88c00015 	stw	r3,0(r17)
    5a84:	dfc00217 	ldw	ra,8(sp)
    5a88:	dc400117 	ldw	r17,4(sp)
    5a8c:	dc000017 	ldw	r16,0(sp)
    5a90:	dec00304 	addi	sp,sp,12
    5a94:	f800283a 	ret

00005a98 <alt_load>:
 * there is no bootloader, so this application is responsible for loading to
 * RAM any sections that are required.
 */  

void alt_load (void)
{
    5a98:	deffff04 	addi	sp,sp,-4
    5a9c:	01000034 	movhi	r4,0
    5aa0:	01400034 	movhi	r5,0
    5aa4:	dfc00015 	stw	ra,0(sp)
    5aa8:	2118c504 	addi	r4,r4,25364
    5aac:	29590e04 	addi	r5,r5,25656

static void ALT_INLINE alt_load_section (alt_u32* from, 
                                         alt_u32* to, 
                                         alt_u32* end)
{
  if (to != from)
    5ab0:	2140061e 	bne	r4,r5,5acc <alt_load+0x34>
    5ab4:	01000034 	movhi	r4,0
    5ab8:	01400034 	movhi	r5,0
    5abc:	21000804 	addi	r4,r4,32
    5ac0:	29400804 	addi	r5,r5,32
    5ac4:	2140121e 	bne	r4,r5,5b10 <alt_load+0x78>
    5ac8:	00000b06 	br	5af8 <alt_load+0x60>
    5acc:	00c00034 	movhi	r3,0
    5ad0:	18d90e04 	addi	r3,r3,25656
    5ad4:	1907c83a 	sub	r3,r3,r4
    5ad8:	0005883a 	mov	r2,zero
  {
    while( to != end )
    5adc:	10fff526 	beq	r2,r3,5ab4 <_gp+0xffff7694>
    {
      *to++ = *from++;
    5ae0:	114f883a 	add	r7,r2,r5
    5ae4:	39c00017 	ldw	r7,0(r7)
    5ae8:	110d883a 	add	r6,r2,r4
    5aec:	10800104 	addi	r2,r2,4
    5af0:	31c00015 	stw	r7,0(r6)
    5af4:	003ff906 	br	5adc <_gp+0xffff76bc>
    5af8:	01000034 	movhi	r4,0
    5afc:	01400034 	movhi	r5,0
    5b00:	2117b104 	addi	r4,r4,24260
    5b04:	2957b104 	addi	r5,r5,24260

static void ALT_INLINE alt_load_section (alt_u32* from, 
                                         alt_u32* to, 
                                         alt_u32* end)
{
  if (to != from)
    5b08:	2140101e 	bne	r4,r5,5b4c <alt_load+0xb4>
    5b0c:	00000b06 	br	5b3c <alt_load+0xa4>
    5b10:	00c00034 	movhi	r3,0
    5b14:	18c00804 	addi	r3,r3,32
    5b18:	1907c83a 	sub	r3,r3,r4
    5b1c:	0005883a 	mov	r2,zero
  {
    while( to != end )
    5b20:	10fff526 	beq	r2,r3,5af8 <_gp+0xffff76d8>
    {
      *to++ = *from++;
    5b24:	114f883a 	add	r7,r2,r5
    5b28:	39c00017 	ldw	r7,0(r7)
    5b2c:	110d883a 	add	r6,r2,r4
    5b30:	10800104 	addi	r2,r2,4
    5b34:	31c00015 	stw	r7,0(r6)
    5b38:	003ff906 	br	5b20 <_gp+0xffff7700>
  
  /*
   * Now ensure that the caches are in synch.
   */
  
  alt_dcache_flush_all();
    5b3c:	0005e600 	call	5e60 <alt_dcache_flush_all>
  alt_icache_flush_all();
}
    5b40:	dfc00017 	ldw	ra,0(sp)
    5b44:	dec00104 	addi	sp,sp,4
  /*
   * Now ensure that the caches are in synch.
   */
  
  alt_dcache_flush_all();
  alt_icache_flush_all();
    5b48:	0005e781 	jmpi	5e78 <alt_icache_flush_all>
    5b4c:	00c00034 	movhi	r3,0
    5b50:	18d8c504 	addi	r3,r3,25364
    5b54:	1907c83a 	sub	r3,r3,r4

static void ALT_INLINE alt_load_section (alt_u32* from, 
                                         alt_u32* to, 
                                         alt_u32* end)
{
  if (to != from)
    5b58:	0005883a 	mov	r2,zero
  {
    while( to != end )
    5b5c:	18bff726 	beq	r3,r2,5b3c <_gp+0xffff771c>
    {
      *to++ = *from++;
    5b60:	114f883a 	add	r7,r2,r5
    5b64:	39c00017 	ldw	r7,0(r7)
    5b68:	110d883a 	add	r6,r2,r4
    5b6c:	10800104 	addi	r2,r2,4
    5b70:	31c00015 	stw	r7,0(r6)
    5b74:	003ff906 	br	5b5c <_gp+0xffff773c>

00005b78 <alt_main>:
 * devices/filesystems/components in the system; and call the entry point for
 * the users application, i.e. main().
 */

void alt_main (void)
{
    5b78:	deffff04 	addi	sp,sp,-4
#endif

  /* ALT LOG - please see HAL/sys/alt_log_printf.h for details */
  ALT_LOG_PRINT_BOOT("[alt_main.c] Entering alt_main, calling alt_irq_init.\r\n");
  /* Initialize the interrupt controller. */
  alt_irq_init (NULL);
    5b7c:	0009883a 	mov	r4,zero
 * devices/filesystems/components in the system; and call the entry point for
 * the users application, i.e. main().
 */

void alt_main (void)
{
    5b80:	dfc00015 	stw	ra,0(sp)
#endif

  /* ALT LOG - please see HAL/sys/alt_log_printf.h for details */
  ALT_LOG_PRINT_BOOT("[alt_main.c] Entering alt_main, calling alt_irq_init.\r\n");
  /* Initialize the interrupt controller. */
  alt_irq_init (NULL);
    5b84:	0005e080 	call	5e08 <alt_irq_init>
  ALT_LOG_PRINT_BOOT("[alt_main.c] Done OS Init, calling alt_sem_create.\r\n");
  ALT_SEM_CREATE (&alt_fd_list_lock, 1);

  /* Initialize the device drivers/software components. */
  ALT_LOG_PRINT_BOOT("[alt_main.c] Calling alt_sys_init.\r\n");
  alt_sys_init();
    5b88:	0005e280 	call	5e28 <alt_sys_init>
   */

  ALT_LOG_PRINT_BOOT("[alt_main.c] Calling main.\r\n");

#ifdef ALT_NO_EXIT
  main (alt_argc, alt_argv, alt_envp);
    5b8c:	d1a05317 	ldw	r6,-32436(gp)
    5b90:	d1605417 	ldw	r5,-32432(gp)
    5b94:	d1205517 	ldw	r4,-32428(gp)
  close(STDOUT_FILENO);
  exit (result);
#endif

  ALT_LOG_PRINT_BOOT("[alt_main.c] After main - we should not be here?.\r\n");
}
    5b98:	dfc00017 	ldw	ra,0(sp)
    5b9c:	dec00104 	addi	sp,sp,4
   */

  ALT_LOG_PRINT_BOOT("[alt_main.c] Calling main.\r\n");

#ifdef ALT_NO_EXIT
  main (alt_argc, alt_argv, alt_envp);
    5ba0:	00006001 	jmpi	600 <main>

00005ba4 <alt_printf>:
/* 
 * ALT printf function 
 */
void 
alt_printf(const char* fmt, ... )
{
    5ba4:	defff204 	addi	sp,sp,-56
    5ba8:	2005883a 	mov	r2,r4
    5bac:	dfc00a15 	stw	ra,40(sp)
    5bb0:	df000915 	stw	fp,36(sp)
    5bb4:	ddc00815 	stw	r23,32(sp)
    5bb8:	dd800715 	stw	r22,28(sp)
    5bbc:	dd400615 	stw	r21,24(sp)
    5bc0:	dd000515 	stw	r20,20(sp)
    5bc4:	dcc00415 	stw	r19,16(sp)
    5bc8:	dc800315 	stw	r18,12(sp)
    5bcc:	dc400215 	stw	r17,8(sp)
    5bd0:	dc000115 	stw	r16,4(sp)
    5bd4:	d9400b15 	stw	r5,44(sp)
    5bd8:	d9800c15 	stw	r6,48(sp)
    5bdc:	d9c00d15 	stw	r7,52(sp)
    w = fmt;
    while ((c = *w++) != 0)
    {
        /* If not a format escape character, just print  */
        /* character.  Otherwise, process format string. */
        if (c != '%')
    5be0:	04000944 	movi	r16,37
 */
void 
alt_printf(const char* fmt, ... )
{
	va_list args;
	va_start(args, fmt);
    5be4:	dd400b04 	addi	r21,sp,44
                if (c == '%')
                {
                    /* Process "%" escape sequence. */
                    alt_putchar(c);
                } 
                else if (c == 'c')
    5be8:	048018c4 	movi	r18,99
                {
                    int v = va_arg(args, int);
                    alt_putchar(v);
                }
                else if (c == 'x')
    5bec:	04c01e04 	movi	r19,120
                        else
                            c = 'a' + digit - 10;
                        alt_putchar(c);
                    }
                }
                else if (c == 's')
    5bf0:	05001cc4 	movi	r20,115
    const char *w;
    char c;

    /* Process format string. */
    w = fmt;
    while ((c = *w++) != 0)
    5bf4:	11000007 	ldb	r4,0(r2)
    5bf8:	20003a26 	beq	r4,zero,5ce4 <alt_printf+0x140>
    {
        /* If not a format escape character, just print  */
        /* character.  Otherwise, process format string. */
        if (c != '%')
    5bfc:	24000226 	beq	r4,r16,5c08 <alt_printf+0x64>
    const char *w;
    char c;

    /* Process format string. */
    w = fmt;
    while ((c = *w++) != 0)
    5c00:	14400044 	addi	r17,r2,1
    5c04:	00001406 	br	5c58 <alt_printf+0xb4>
        }
        else
        {
            /* Get format character.  If none     */
            /* available, processing is complete. */
            if ((c = *w++) != 0)
    5c08:	14400084 	addi	r17,r2,2
    5c0c:	10800047 	ldb	r2,1(r2)
    5c10:	10003426 	beq	r2,zero,5ce4 <alt_printf+0x140>
            {
                if (c == '%')
    5c14:	1400021e 	bne	r2,r16,5c20 <alt_printf+0x7c>
                {
                    /* Process "%" escape sequence. */
                    alt_putchar(c);
    5c18:	8009883a 	mov	r4,r16
    5c1c:	00000e06 	br	5c58 <alt_printf+0xb4>
                } 
                else if (c == 'c')
    5c20:	1480051e 	bne	r2,r18,5c38 <alt_printf+0x94>
                {
                    int v = va_arg(args, int);
                    alt_putchar(v);
    5c24:	a9000017 	ldw	r4,0(r21)
                    /* Process "%" escape sequence. */
                    alt_putchar(c);
                } 
                else if (c == 'c')
                {
                    int v = va_arg(args, int);
    5c28:	ad800104 	addi	r22,r21,4
    5c2c:	b02b883a 	mov	r21,r22
                    alt_putchar(v);
    5c30:	0005d140 	call	5d14 <alt_putchar>
    5c34:	00002906 	br	5cdc <alt_printf+0x138>
                }
                else if (c == 'x')
    5c38:	14c0201e 	bne	r2,r19,5cbc <alt_printf+0x118>
                {
                    /* Process hexadecimal number format. */
                    unsigned long v = va_arg(args, unsigned long);
    5c3c:	adc00017 	ldw	r23,0(r21)
    5c40:	ad400104 	addi	r21,r21,4
                    unsigned long digit;
                    int digit_shift;

                    /* If the number value is zero, just print and continue. */
                    if (v == 0)
    5c44:	b8000326 	beq	r23,zero,5c54 <alt_printf+0xb0>
    5c48:	05800704 	movi	r22,28
                        continue;
                    }

                    /* Find first non-zero digit. */
                    digit_shift = 28;
                    while (!(v & (0xF << digit_shift)))
    5c4c:	00c003c4 	movi	r3,15
    5c50:	00000306 	br	5c60 <alt_printf+0xbc>
                    int digit_shift;

                    /* If the number value is zero, just print and continue. */
                    if (v == 0)
                    {
                        alt_putchar('0');
    5c54:	01000c04 	movi	r4,48
    5c58:	0005d140 	call	5d14 <alt_putchar>
                        continue;
    5c5c:	00001f06 	br	5cdc <alt_printf+0x138>
                    }

                    /* Find first non-zero digit. */
                    digit_shift = 28;
                    while (!(v & (0xF << digit_shift)))
    5c60:	1d84983a 	sll	r2,r3,r22
    5c64:	15c4703a 	and	r2,r2,r23
    5c68:	1000021e 	bne	r2,zero,5c74 <alt_printf+0xd0>
                        digit_shift -= 4;
    5c6c:	b5bfff04 	addi	r22,r22,-4
    5c70:	003ffb06 	br	5c60 <_gp+0xffff7840>

                    /* Print digits. */
                    for (; digit_shift >= 0; digit_shift -= 4)
                    {
                        digit = (v & (0xF << digit_shift)) >> digit_shift;
    5c74:	070003c4 	movi	fp,15
                        if (digit <= 9)
    5c78:	00c00244 	movi	r3,9
                    digit_shift = 28;
                    while (!(v & (0xF << digit_shift)))
                        digit_shift -= 4;

                    /* Print digits. */
                    for (; digit_shift >= 0; digit_shift -= 4)
    5c7c:	b0001716 	blt	r22,zero,5cdc <alt_printf+0x138>
                    {
                        digit = (v & (0xF << digit_shift)) >> digit_shift;
    5c80:	e588983a 	sll	r4,fp,r22
    5c84:	25c8703a 	and	r4,r4,r23
    5c88:	2588d83a 	srl	r4,r4,r22
                        if (digit <= 9)
    5c8c:	19000236 	bltu	r3,r4,5c98 <alt_printf+0xf4>
                            c = '0' + digit;
    5c90:	21000c04 	addi	r4,r4,48
    5c94:	00000106 	br	5c9c <alt_printf+0xf8>
                        else
                            c = 'a' + digit - 10;
    5c98:	210015c4 	addi	r4,r4,87
                        alt_putchar(c);
    5c9c:	21003fcc 	andi	r4,r4,255
    5ca0:	2100201c 	xori	r4,r4,128
    5ca4:	213fe004 	addi	r4,r4,-128
    5ca8:	d8c00015 	stw	r3,0(sp)
    5cac:	0005d140 	call	5d14 <alt_putchar>
                    digit_shift = 28;
                    while (!(v & (0xF << digit_shift)))
                        digit_shift -= 4;

                    /* Print digits. */
                    for (; digit_shift >= 0; digit_shift -= 4)
    5cb0:	b5bfff04 	addi	r22,r22,-4
    5cb4:	d8c00017 	ldw	r3,0(sp)
    5cb8:	003ff006 	br	5c7c <_gp+0xffff785c>
                        else
                            c = 'a' + digit - 10;
                        alt_putchar(c);
                    }
                }
                else if (c == 's')
    5cbc:	1500071e 	bne	r2,r20,5cdc <alt_printf+0x138>
                {
                    /* Process string format. */
                    char *s = va_arg(args, char *);
    5cc0:	ad800017 	ldw	r22,0(r21)
    5cc4:	ad400104 	addi	r21,r21,4

                    while(*s)
    5cc8:	b1000007 	ldb	r4,0(r22)
    5ccc:	20000326 	beq	r4,zero,5cdc <alt_printf+0x138>
                      alt_putchar(*s++);
    5cd0:	b5800044 	addi	r22,r22,1
    5cd4:	0005d140 	call	5d14 <alt_putchar>
    5cd8:	003ffb06 	br	5cc8 <_gp+0xffff78a8>
                    /* Process "%" escape sequence. */
                    alt_putchar(c);
                } 
                else if (c == 'c')
                {
                    int v = va_arg(args, int);
    5cdc:	8805883a 	mov	r2,r17
    5ce0:	003fc406 	br	5bf4 <_gp+0xffff77d4>
        }
    }
#ifdef ALT_SEMIHOSTING
    alt_putbufflush();
#endif
}
    5ce4:	dfc00a17 	ldw	ra,40(sp)
    5ce8:	df000917 	ldw	fp,36(sp)
    5cec:	ddc00817 	ldw	r23,32(sp)
    5cf0:	dd800717 	ldw	r22,28(sp)
    5cf4:	dd400617 	ldw	r21,24(sp)
    5cf8:	dd000517 	ldw	r20,20(sp)
    5cfc:	dcc00417 	ldw	r19,16(sp)
    5d00:	dc800317 	ldw	r18,12(sp)
    5d04:	dc400217 	ldw	r17,8(sp)
    5d08:	dc000117 	ldw	r16,4(sp)
    5d0c:	dec00e04 	addi	sp,sp,56
    5d10:	f800283a 	ret

00005d14 <alt_putchar>:
 * Uses the ALT_DRIVER_WRITE() macro to call directly to driver if available.
 * Otherwise, uses newlib provided putchar() routine.
 */
int 
alt_putchar(int c)
{
    5d14:	defffd04 	addi	sp,sp,-12
    5d18:	dc000115 	stw	r16,4(sp)
	char        c1 = (char)(c & 0xff);
    return write(STDOUT_FILENO,&c1,1);
#else
#ifdef ALT_USE_DIRECT_DRIVERS
    ALT_DRIVER_WRITE_EXTERNS(ALT_STDOUT_DEV);
    char        c1 = (char)(c & 0xff);
    5d1c:	d9000005 	stb	r4,0(sp)
 * Uses the ALT_DRIVER_WRITE() macro to call directly to driver if available.
 * Otherwise, uses newlib provided putchar() routine.
 */
int 
alt_putchar(int c)
{
    5d20:	2021883a 	mov	r16,r4
#else
#ifdef ALT_USE_DIRECT_DRIVERS
    ALT_DRIVER_WRITE_EXTERNS(ALT_STDOUT_DEV);
    char        c1 = (char)(c & 0xff);

    if (ALT_DRIVER_WRITE(ALT_STDOUT_DEV, &c1, 1, 0) == -1) {
    5d24:	01000034 	movhi	r4,0
    5d28:	000f883a 	mov	r7,zero
    5d2c:	01800044 	movi	r6,1
    5d30:	d80b883a 	mov	r5,sp
    5d34:	21190c04 	addi	r4,r4,25648
 * Uses the ALT_DRIVER_WRITE() macro to call directly to driver if available.
 * Otherwise, uses newlib provided putchar() routine.
 */
int 
alt_putchar(int c)
{
    5d38:	dfc00215 	stw	ra,8(sp)
#else
#ifdef ALT_USE_DIRECT_DRIVERS
    ALT_DRIVER_WRITE_EXTERNS(ALT_STDOUT_DEV);
    char        c1 = (char)(c & 0xff);

    if (ALT_DRIVER_WRITE(ALT_STDOUT_DEV, &c1, 1, 0) == -1) {
    5d3c:	0005e2c0 	call	5e2c <altera_avalon_jtag_uart_write>
    5d40:	00ffffc4 	movi	r3,-1
    5d44:	10c00126 	beq	r2,r3,5d4c <alt_putchar+0x38>
        return -1;
    }
    return c;
    5d48:	8005883a 	mov	r2,r16
#else
    return putchar(c);
#endif
#endif
}
    5d4c:	dfc00217 	ldw	ra,8(sp)
    5d50:	dc000117 	ldw	r16,4(sp)
    5d54:	dec00304 	addi	sp,sp,12
    5d58:	f800283a 	ret

00005d5c <sbrk>:
static ALT_INLINE alt_irq_context ALT_ALWAYS_INLINE 
       alt_irq_disable_all (void)
{
  alt_irq_context context;

  NIOS2_READ_STATUS (context);
    5d5c:	000b303a 	rdctl	r5,status

  NIOS2_WRITE_STATUS (context & ~NIOS2_STATUS_PIE_MSK);
    5d60:	00bfff84 	movi	r2,-2
    5d64:	2884703a 	and	r2,r5,r2
    5d68:	1001703a 	wrctl	status,r2
  char *prev_heap_end; 

  context = alt_irq_disable_all();

  /* Always return data aligned on a word boundary */
  heap_end = (char *)(((unsigned int)heap_end + 3) & ~3);
    5d6c:	d0a00317 	ldw	r2,-32756(gp)
    5d70:	00ffff04 	movi	r3,-4
    5d74:	108000c4 	addi	r2,r2,3
    5d78:	10c4703a 	and	r2,r2,r3
  if (((heap_end + incr) - __alt_heap_start) > ALT_MAX_HEAP_BYTES) {
    alt_irq_enable_all(context);
    return (caddr_t)-1;
  }
#else
  if ((heap_end + incr) > __alt_heap_limit) {
    5d7c:	00c00074 	movhi	r3,1
  char *prev_heap_end; 

  context = alt_irq_disable_all();

  /* Always return data aligned on a word boundary */
  heap_end = (char *)(((unsigned int)heap_end + 3) & ~3);
    5d80:	d0a00315 	stw	r2,-32756(gp)
  if (((heap_end + incr) - __alt_heap_start) > ALT_MAX_HEAP_BYTES) {
    alt_irq_enable_all(context);
    return (caddr_t)-1;
  }
#else
  if ((heap_end + incr) > __alt_heap_limit) {
    5d84:	1109883a 	add	r4,r2,r4
    5d88:	18e71004 	addi	r3,r3,-25536
    5d8c:	1900032e 	bgeu	r3,r4,5d9c <sbrk+0x40>
  status &= ~NIOS2_STATUS_PIE_MSK;
  status |= (context & NIOS2_STATUS_PIE_MSK);
  
  NIOS2_WRITE_STATUS (status);
#else
  NIOS2_WRITE_STATUS (context);
    5d90:	2801703a 	wrctl	status,r5
    alt_irq_enable_all(context);
    return (caddr_t)-1;
    5d94:	00bfffc4 	movi	r2,-1
    5d98:	f800283a 	ret
  }
#endif

  prev_heap_end = heap_end; 
  heap_end += incr; 
    5d9c:	d1200315 	stw	r4,-32756(gp)
    5da0:	2801703a 	wrctl	status,r5
#endif

  alt_irq_enable_all(context);

  return (caddr_t) prev_heap_end; 
} 
    5da4:	f800283a 	ret

00005da8 <write>:
#if !defined(ALT_STDOUT_PRESENT) && !defined(ALT_STDERR_PRESENT)
    /* Generate a link time warning, should this function ever be called. */
    ALT_STUB_WARNING(write);
#endif

    switch (file) {
    5da8:	00800044 	movi	r2,1
    5dac:	20800226 	beq	r4,r2,5db8 <write+0x10>
    5db0:	00800084 	movi	r2,2
    5db4:	2080041e 	bne	r4,r2,5dc8 <write+0x20>
    case 1: /* stdout file descriptor */
        return ALT_DRIVER_WRITE(ALT_STDOUT_DEV, ptr, len, 0);
#endif /* ALT_STDOUT_PRESENT */
#ifdef ALT_STDERR_PRESENT
    case 2: /* stderr file descriptor */
        return ALT_DRIVER_WRITE(ALT_STDERR_DEV, ptr, len, 0);
    5db8:	01000034 	movhi	r4,0
    5dbc:	000f883a 	mov	r7,zero
    5dc0:	21190c04 	addi	r4,r4,25648
    5dc4:	0005e2c1 	jmpi	5e2c <altera_avalon_jtag_uart_write>

extern int errno;

static ALT_INLINE int* alt_get_errno(void)
{
  return ((alt_errno) ? alt_errno() : &errno);
    5dc8:	d0a00517 	ldw	r2,-32748(gp)
    5dcc:	10000926 	beq	r2,zero,5df4 <write+0x4c>
 * Provide minimal version that just writes to the stdout/stderr devices
 * when provided.
 */

int ALT_WRITE (int file, const void *ptr, size_t len)
{
    5dd0:	deffff04 	addi	sp,sp,-4
    5dd4:	dfc00015 	stw	ra,0(sp)
    5dd8:	103ee83a 	callr	r2
#ifdef ALT_STDERR_PRESENT
    case 2: /* stderr file descriptor */
        return ALT_DRIVER_WRITE(ALT_STDERR_DEV, ptr, len, 0);
#endif /* ALT_STDERR_PRESENT */
    default:
        ALT_ERRNO = EBADFD;
    5ddc:	00c01444 	movi	r3,81
    5de0:	10c00015 	stw	r3,0(r2)
        return -1;
    }
}
    5de4:	00bfffc4 	movi	r2,-1
    5de8:	dfc00017 	ldw	ra,0(sp)
    5dec:	dec00104 	addi	sp,sp,4
    5df0:	f800283a 	ret
    5df4:	d0a05204 	addi	r2,gp,-32440
#ifdef ALT_STDERR_PRESENT
    case 2: /* stderr file descriptor */
        return ALT_DRIVER_WRITE(ALT_STDERR_DEV, ptr, len, 0);
#endif /* ALT_STDERR_PRESENT */
    default:
        ALT_ERRNO = EBADFD;
    5df8:	00c01444 	movi	r3,81
    5dfc:	10c00015 	stw	r3,0(r2)
        return -1;
    }
}
    5e00:	00bfffc4 	movi	r2,-1
    5e04:	f800283a 	ret

00005e08 <alt_irq_init>:
 * The "base" parameter is ignored and only
 * present for backwards-compatibility.
 */

void alt_irq_init ( const void* base )
{
    5e08:	deffff04 	addi	sp,sp,-4
    5e0c:	dfc00015 	stw	ra,0(sp)
    ALTERA_NIOS2_GEN2_IRQ_INIT ( NIOS2_CPU, nios2_cpu);
    5e10:	0005e840 	call	5e84 <altera_nios2_gen2_irq_init>
 * alt_irq_cpu_enable_interrupts() enables the CPU to start taking interrupts.
 */
static ALT_INLINE void ALT_ALWAYS_INLINE 
       alt_irq_cpu_enable_interrupts (void)
{
    NIOS2_WRITE_STATUS(NIOS2_STATUS_PIE_MSK
    5e14:	00800044 	movi	r2,1
    5e18:	1001703a 	wrctl	status,r2
    alt_irq_cpu_enable_interrupts();
}
    5e1c:	dfc00017 	ldw	ra,0(sp)
    5e20:	dec00104 	addi	sp,sp,4
    5e24:	f800283a 	ret

00005e28 <alt_sys_init>:
 * Initialize the non-interrupt controller devices.
 * Called after alt_irq_init().
 */

void alt_sys_init( void )
{
    5e28:	f800283a 	ret

00005e2c <altera_avalon_jtag_uart_write>:
 */

int altera_avalon_jtag_uart_write(altera_avalon_jtag_uart_state* sp, 
  const char * ptr, int count, int flags)
{
  unsigned int base = sp->base;
    5e2c:	21000017 	ldw	r4,0(r4)
 * one FIFOs worth of data.  But you said you didn't want to use interrupts :-)
 */

int altera_avalon_jtag_uart_write(altera_avalon_jtag_uart_state* sp, 
  const char * ptr, int count, int flags)
{
    5e30:	3005883a 	mov	r2,r6
  unsigned int base = sp->base;

  const char * end = ptr + count;
    5e34:	298d883a 	add	r6,r5,r6

  while (ptr < end)
    if ((IORD_ALTERA_AVALON_JTAG_UART_CONTROL(base) & ALTERA_AVALON_JTAG_UART_CONTROL_WSPACE_MSK) != 0)
    5e38:	21c00104 	addi	r7,r4,4
{
  unsigned int base = sp->base;

  const char * end = ptr + count;

  while (ptr < end)
    5e3c:	2980072e 	bgeu	r5,r6,5e5c <altera_avalon_jtag_uart_write+0x30>
    if ((IORD_ALTERA_AVALON_JTAG_UART_CONTROL(base) & ALTERA_AVALON_JTAG_UART_CONTROL_WSPACE_MSK) != 0)
    5e40:	38c00037 	ldwio	r3,0(r7)
    5e44:	18ffffec 	andhi	r3,r3,65535
    5e48:	183ffc26 	beq	r3,zero,5e3c <_gp+0xffff7a1c>
      IOWR_ALTERA_AVALON_JTAG_UART_DATA(base, *ptr++);
    5e4c:	28c00007 	ldb	r3,0(r5)
    5e50:	20c00035 	stwio	r3,0(r4)
    5e54:	29400044 	addi	r5,r5,1
    5e58:	003ff806 	br	5e3c <_gp+0xffff7a1c>

  return count;
}
    5e5c:	f800283a 	ret

00005e60 <alt_dcache_flush_all>:
void alt_dcache_flush_all (void)
{
#if NIOS2_DCACHE_SIZE > 0
  char* i;
  
  for (i = (char*) 0; i < (char*) NIOS2_DCACHE_SIZE; i+= NIOS2_DCACHE_LINE_SIZE)
    5e60:	0005883a 	mov	r2,zero
    5e64:	00c20004 	movi	r3,2048
  { 
    __asm__ volatile ("flushd (%0)" :: "r" (i));
    5e68:	1000003b 	flushd	0(r2)
void alt_dcache_flush_all (void)
{
#if NIOS2_DCACHE_SIZE > 0
  char* i;
  
  for (i = (char*) 0; i < (char*) NIOS2_DCACHE_SIZE; i+= NIOS2_DCACHE_LINE_SIZE)
    5e6c:	10800804 	addi	r2,r2,32
    5e70:	10fffd1e 	bne	r2,r3,5e68 <_gp+0xffff7a48>
  { 
    __asm__ volatile ("flushd (%0)" :: "r" (i));
  }
#endif /* NIOS2_DCACHE_SIZE > 0 */
}
    5e74:	f800283a 	ret

00005e78 <alt_icache_flush_all>:
 */

void alt_icache_flush_all (void)
{
#if NIOS2_ICACHE_SIZE > 0
  alt_icache_flush (0, NIOS2_ICACHE_SIZE);
    5e78:	01440004 	movi	r5,4096
    5e7c:	0009883a 	mov	r4,zero
    5e80:	0005e8c1 	jmpi	5e8c <alt_icache_flush>

00005e84 <altera_nios2_gen2_irq_init>:
 * To initialize the internal interrupt controller, just clear the IENABLE
 * register so that all possible IRQs are disabled.
 */
void altera_nios2_gen2_irq_init(void) 
{
    NIOS2_WRITE_IENABLE(0);
    5e84:	000170fa 	wrctl	ienable,zero
    5e88:	f800283a 	ret

00005e8c <alt_icache_flush>:
  if (len > NIOS2_ICACHE_SIZE)
  {
    len = NIOS2_ICACHE_SIZE;
  }

  end = ((char*) start) + len;
    5e8c:	00840004 	movi	r2,4096
    5e90:	1140012e 	bgeu	r2,r5,5e98 <alt_icache_flush+0xc>
    5e94:	100b883a 	mov	r5,r2
    5e98:	214b883a 	add	r5,r4,r5

  for (i = start; i < end; i+= NIOS2_ICACHE_LINE_SIZE)
    5e9c:	2005883a 	mov	r2,r4
    5ea0:	1140032e 	bgeu	r2,r5,5eb0 <alt_icache_flush+0x24>
  { 
    __asm__ volatile ("flushi %0" :: "r" (i)); 
    5ea4:	1000603a 	flushi	r2
    len = NIOS2_ICACHE_SIZE;
  }

  end = ((char*) start) + len;

  for (i = start; i < end; i+= NIOS2_ICACHE_LINE_SIZE)
    5ea8:	10800804 	addi	r2,r2,32
    5eac:	003ffc06 	br	5ea0 <_gp+0xffff7a80>
   * For an unaligned flush request, we've got one more line left.
   * Note that this is dependent on NIOS2_ICACHE_LINE_SIZE to be a 
   * multiple of 2 (which it always is).
   */

  if (((alt_u32) start) & (NIOS2_ICACHE_LINE_SIZE - 1))
    5eb0:	210007cc 	andi	r4,r4,31
    5eb4:	20000126 	beq	r4,zero,5ebc <alt_icache_flush+0x30>
  {
    __asm__ volatile ("flushi %0" :: "r" (i));
    5eb8:	1000603a 	flushi	r2
  /* 
   * Having flushed the cache, flush any stale instructions in the 
   * pipeline 
   */

  __asm__ volatile ("flushp");
    5ebc:	0000203a 	flushp
    5ec0:	f800283a 	ret
